
/var/home/znmeb/CLAMS_base/pico_repos/pico-examples/build_sparkfun_promicro_rp2350_rp2350-arm-s/blink/blink.elf:     file format elf32-littlearm

Sections:
Idx Name          Size      VMA       LMA       File off  Algn
  0 .text         00002a84  10000000  10000000  00001000  2**3
                  CONTENTS, ALLOC, LOAD, READONLY, CODE
  1 .rodata       0000061c  10002a88  10002a88  00003a88  2**3
                  CONTENTS, ALLOC, LOAD, READONLY, DATA
  2 .ARM.exidx    00000008  100030a4  100030a4  000040a4  2**2
                  CONTENTS, ALLOC, LOAD, READONLY, DATA
  3 .binary_info  0000001c  100030ac  100030ac  000040ac  2**2
                  CONTENTS, ALLOC, LOAD, READONLY, DATA
  4 .ram_vector_table 00000110  20000000  20000000  00006000  2**2
                  ALLOC
  5 .uninitialized_data 00000000  20000110  20000110  000055b0  2**0
                  CONTENTS
  6 .data         000004d4  20000110  100030c8  00004110  2**3
                  CONTENTS, ALLOC, LOAD, READONLY, CODE
  7 .tdata        00000000  200005e4  200005e4  000055b0  2**0
                  CONTENTS, ALLOC, LOAD, DATA, THREAD_LOCAL
  8 .tbss         00000000  200005e4  200005e4  00000000  2**0
                  ALLOC, THREAD_LOCAL
  9 .bss          00000210  200005e8  1000359c  000055e8  2**3
                  ALLOC
 10 .heap         0007f808  200007f8  1000359c  000057f8  2**2
                  ALLOC, READONLY
 11 .scratch_x    00000000  20080000  20080000  000055b0  2**0
                  CONTENTS
 12 .scratch_y    00000000  20081000  20081000  000055b0  2**0
                  CONTENTS
 13 .stack_dummy  00000800  20081000  20081000  000055c0  2**5
                  CONTENTS, READONLY
 14 .flash_end    00000014  1000359c  1000359c  0000559c  2**0
                  CONTENTS, ALLOC, LOAD, READONLY, DATA
 15 .ARM.attributes 00000034  00000000  00000000  00005dc0  2**0
                  CONTENTS, READONLY
 16 .comment      00000045  00000000  00000000  00005df4  2**0
                  CONTENTS, READONLY
 17 .debug_info   0001511b  00000000  00000000  00005e39  2**0
                  CONTENTS, READONLY, DEBUGGING, OCTETS
 18 .debug_abbrev 000042f4  00000000  00000000  0001af54  2**0
                  CONTENTS, READONLY, DEBUGGING, OCTETS
 19 .debug_loclists 00007210  00000000  00000000  0001f248  2**0
                  CONTENTS, READONLY, DEBUGGING, OCTETS
 20 .debug_aranges 00000a58  00000000  00000000  00026458  2**3
                  CONTENTS, READONLY, DEBUGGING, OCTETS
 21 .debug_rnglists 00000b3a  00000000  00000000  00026eb0  2**0
                  CONTENTS, READONLY, DEBUGGING, OCTETS
 22 .debug_line   0000c38b  00000000  00000000  000279ea  2**0
                  CONTENTS, READONLY, DEBUGGING, OCTETS
 23 .debug_str    000047ab  00000000  00000000  00033d75  2**0
                  CONTENTS, READONLY, DEBUGGING, OCTETS
 24 .debug_frame  000018ec  00000000  00000000  00038520  2**2
                  CONTENTS, READONLY, DEBUGGING, OCTETS
 25 .debug_line_str 000002c8  00000000  00000000  00039e0c  2**0
                  CONTENTS, READONLY, DEBUGGING, OCTETS

/var/home/znmeb/CLAMS_base/pico_repos/pico-examples/build_sparkfun_promicro_rp2350_rp2350-arm-s/blink/blink.elf:     file format elf32-littlearm


Disassembly of section .text:

10000000 <__VECTOR_TABLE>:
10000000:	20082000 	.word	0x20082000
10000004:	1000015d 	.word	0x1000015d
10000008:	10000113 	.word	0x10000113
1000000c:	10000115 	.word	0x10000115
10000010:	10000111 	.word	0x10000111
10000014:	10000111 	.word	0x10000111
10000018:	10000111 	.word	0x10000111
1000001c:	10000111 	.word	0x10000111
10000020:	10000111 	.word	0x10000111
10000024:	10000111 	.word	0x10000111
10000028:	10000111 	.word	0x10000111
1000002c:	10000117 	.word	0x10000117
10000030:	10000111 	.word	0x10000111
10000034:	10000111 	.word	0x10000111
10000038:	10000119 	.word	0x10000119
1000003c:	1000011b 	.word	0x1000011b
10000040:	1000011d 	.word	0x1000011d
10000044:	1000011d 	.word	0x1000011d
10000048:	1000011d 	.word	0x1000011d
1000004c:	1000011d 	.word	0x1000011d
10000050:	1000011d 	.word	0x1000011d
10000054:	1000011d 	.word	0x1000011d
10000058:	1000011d 	.word	0x1000011d
1000005c:	1000011d 	.word	0x1000011d
10000060:	1000011d 	.word	0x1000011d
10000064:	1000011d 	.word	0x1000011d
10000068:	1000011d 	.word	0x1000011d
1000006c:	1000011d 	.word	0x1000011d
10000070:	1000011d 	.word	0x1000011d
10000074:	1000011d 	.word	0x1000011d
10000078:	1000011d 	.word	0x1000011d
1000007c:	1000011d 	.word	0x1000011d
10000080:	1000011d 	.word	0x1000011d
10000084:	1000011d 	.word	0x1000011d
10000088:	1000011d 	.word	0x1000011d
1000008c:	1000011d 	.word	0x1000011d
10000090:	1000011d 	.word	0x1000011d
10000094:	1000011d 	.word	0x1000011d
10000098:	1000011d 	.word	0x1000011d
1000009c:	1000011d 	.word	0x1000011d
100000a0:	1000011d 	.word	0x1000011d
100000a4:	1000011d 	.word	0x1000011d
100000a8:	1000011d 	.word	0x1000011d
100000ac:	1000011d 	.word	0x1000011d
100000b0:	1000011d 	.word	0x1000011d
100000b4:	1000011d 	.word	0x1000011d
100000b8:	1000011d 	.word	0x1000011d
100000bc:	1000011d 	.word	0x1000011d
100000c0:	1000011d 	.word	0x1000011d
100000c4:	1000011d 	.word	0x1000011d
100000c8:	1000011d 	.word	0x1000011d
100000cc:	1000011d 	.word	0x1000011d
100000d0:	1000011d 	.word	0x1000011d
100000d4:	1000011d 	.word	0x1000011d
100000d8:	1000011d 	.word	0x1000011d
100000dc:	1000011d 	.word	0x1000011d
100000e0:	1000011d 	.word	0x1000011d
100000e4:	1000011d 	.word	0x1000011d
100000e8:	1000011d 	.word	0x1000011d
100000ec:	1000011d 	.word	0x1000011d
100000f0:	1000011d 	.word	0x1000011d
100000f4:	1000011d 	.word	0x1000011d
100000f8:	1000011d 	.word	0x1000011d
100000fc:	1000011d 	.word	0x1000011d
10000100:	1000011d 	.word	0x1000011d
10000104:	1000011d 	.word	0x1000011d
10000108:	1000011d 	.word	0x1000011d
1000010c:	1000011d 	.word	0x1000011d

10000110 <isr_invalid>:
10000110:	be00      	bkpt	0x0000

10000112 <isr_nmi>:
10000112:	be00      	bkpt	0x0000

10000114 <isr_hardfault>:
10000114:	be00      	bkpt	0x0000

10000116 <isr_svcall>:
10000116:	be00      	bkpt	0x0000

10000118 <isr_pendsv>:
10000118:	be00      	bkpt	0x0000

1000011a <isr_systick>:
1000011a:	be00      	bkpt	0x0000

1000011c <__unhandled_user_irq>:
1000011c:	f3ef 8005 	mrs	r0, IPSR
10000120:	3810      	subs	r0, #16

10000122 <unhandled_user_irq_num_in_r0>:
10000122:	be00      	bkpt	0x0000

10000124 <binary_info_header>:
10000124:	7188ebf2 	.word	0x7188ebf2
10000128:	100030ac 	.word	0x100030ac
1000012c:	100030c8 	.word	0x100030c8
10000130:	100001a8 	.word	0x100001a8
10000134:	e71aa390 	.word	0xe71aa390

10000138 <__binary_info_header_end>:
10000138:	ffffded3 	.word	0xffffded3
1000013c:	10210142 	.word	0x10210142
10000140:	000001ff 	.word	0x000001ff
10000144:	00003464 	.word	0x00003464
10000148:	ab123579 	.word	0xab123579

1000014c <_entry_point>:
1000014c:	f04f 0000 	mov.w	r0, #0

10000150 <_enter_vtable_in_r0>:
10000150:	4920      	ldr	r1, [pc, #128]	@ (100001d4 <data_cpy_table+0x2c>)
10000152:	6008      	str	r0, [r1, #0]
10000154:	c806      	ldmia	r0!, {r1, r2}
10000156:	f381 8808 	msr	MSP, r1
1000015a:	4710      	bx	r2

1000015c <_reset_handler>:
1000015c:	f04f 4050 	mov.w	r0, #3489660928	@ 0xd0000000
10000160:	6800      	ldr	r0, [r0, #0]
10000162:	b110      	cbz	r0, 1000016a <hold_non_core0_in_bootrom+0x6>

10000164 <hold_non_core0_in_bootrom>:
10000164:	f04f 0000 	mov.w	r0, #0
10000168:	e7f2      	b.n	10000150 <_enter_vtable_in_r0>
1000016a:	a40f      	add	r4, pc, #60	@ (adr r4, 100001a8 <data_cpy_table>)
1000016c:	cc0e      	ldmia	r4!, {r1, r2, r3}
1000016e:	2900      	cmp	r1, #0
10000170:	d002      	beq.n	10000178 <hold_non_core0_in_bootrom+0x14>
10000172:	f000 f815 	bl	100001a0 <data_cpy>
10000176:	e7f9      	b.n	1000016c <hold_non_core0_in_bootrom+0x8>
10000178:	4917      	ldr	r1, [pc, #92]	@ (100001d8 <data_cpy_table+0x30>)
1000017a:	4a18      	ldr	r2, [pc, #96]	@ (100001dc <data_cpy_table+0x34>)
1000017c:	2000      	movs	r0, #0
1000017e:	e000      	b.n	10000182 <bss_fill_test>

10000180 <bss_fill_loop>:
10000180:	c101      	stmia	r1!, {r0}

10000182 <bss_fill_test>:
10000182:	4291      	cmp	r1, r2
10000184:	d1fc      	bne.n	10000180 <bss_fill_loop>

10000186 <platform_entry>:
10000186:	2000      	movs	r0, #0
10000188:	f380 880a 	msr	MSPLIM, r0
1000018c:	4914      	ldr	r1, [pc, #80]	@ (100001e0 <data_cpy_table+0x38>)
1000018e:	4788      	blx	r1
10000190:	4914      	ldr	r1, [pc, #80]	@ (100001e4 <data_cpy_table+0x3c>)
10000192:	4788      	blx	r1
10000194:	4914      	ldr	r1, [pc, #80]	@ (100001e8 <data_cpy_table+0x40>)
10000196:	4788      	blx	r1
10000198:	be00      	bkpt	0x0000
1000019a:	e7fd      	b.n	10000198 <platform_entry+0x12>

1000019c <data_cpy_loop>:
1000019c:	c901      	ldmia	r1!, {r0}
1000019e:	c201      	stmia	r2!, {r0}

100001a0 <data_cpy>:
100001a0:	429a      	cmp	r2, r3
100001a2:	d3fb      	bcc.n	1000019c <data_cpy_loop>
100001a4:	4770      	bx	lr
100001a6:	bf00      	nop

100001a8 <data_cpy_table>:
100001a8:	100030c8 	.word	0x100030c8
100001ac:	20000110 	.word	0x20000110
100001b0:	200005e4 	.word	0x200005e4
100001b4:	1000359c 	.word	0x1000359c
100001b8:	20080000 	.word	0x20080000
100001bc:	20080000 	.word	0x20080000
100001c0:	1000359c 	.word	0x1000359c
100001c4:	20081000 	.word	0x20081000
100001c8:	20081000 	.word	0x20081000
100001cc:	00000000 	.word	0x00000000
100001d0:	4770      	bx	lr
100001d2:	0000      	.short	0x0000
100001d4:	e000ed08 	.word	0xe000ed08
100001d8:	200005e4 	.word	0x200005e4
100001dc:	200007f8 	.word	0x200007f8
100001e0:	10002665 	.word	0x10002665
100001e4:	10000241 	.word	0x10000241
100001e8:	10002629 	.word	0x10002629

100001ec <_init>:
100001ec:	b5f8      	push	{r3, r4, r5, r6, r7, lr}
100001ee:	bf00      	nop

100001f0 <register_tm_clones>:
100001f0:	4b06      	ldr	r3, [pc, #24]	@ (1000020c <register_tm_clones+0x1c>)
100001f2:	4907      	ldr	r1, [pc, #28]	@ (10000210 <register_tm_clones+0x20>)
100001f4:	1ac9      	subs	r1, r1, r3
100001f6:	1089      	asrs	r1, r1, #2
100001f8:	bf48      	it	mi
100001fa:	3101      	addmi	r1, #1
100001fc:	1049      	asrs	r1, r1, #1
100001fe:	d003      	beq.n	10000208 <register_tm_clones+0x18>
10000200:	4b04      	ldr	r3, [pc, #16]	@ (10000214 <register_tm_clones+0x24>)
10000202:	b10b      	cbz	r3, 10000208 <register_tm_clones+0x18>
10000204:	4801      	ldr	r0, [pc, #4]	@ (1000020c <register_tm_clones+0x1c>)
10000206:	4718      	bx	r3
10000208:	4770      	bx	lr
1000020a:	bf00      	nop
1000020c:	200005e4 	.word	0x200005e4
10000210:	200005e4 	.word	0x200005e4
10000214:	00000000 	.word	0x00000000

10000218 <frame_dummy>:
10000218:	b508      	push	{r3, lr}
1000021a:	4b05      	ldr	r3, [pc, #20]	@ (10000230 <frame_dummy+0x18>)
1000021c:	b11b      	cbz	r3, 10000226 <frame_dummy+0xe>
1000021e:	4905      	ldr	r1, [pc, #20]	@ (10000234 <frame_dummy+0x1c>)
10000220:	4805      	ldr	r0, [pc, #20]	@ (10000238 <frame_dummy+0x20>)
10000222:	f3af 8000 	nop.w
10000226:	e8bd 4008 	ldmia.w	sp!, {r3, lr}
1000022a:	f7ff bfe1 	b.w	100001f0 <register_tm_clones>
1000022e:	bf00      	nop
10000230:	00000000 	.word	0x00000000
10000234:	200007bc 	.word	0x200007bc
10000238:	10002a84 	.word	0x10002a84

1000023c <pico_led_init>:
1000023c:	4770      	bx	lr
	...

10000240 <main>:
10000240:	b508      	push	{r3, lr}
10000242:	f7ff fffb 	bl	1000023c <pico_led_init>
10000246:	b930      	cbnz	r0, 10000256 <main+0x16>
10000248:	20fa      	movs	r0, #250	@ 0xfa
1000024a:	f000 fc87 	bl	10000b5c <sleep_ms>
1000024e:	20fa      	movs	r0, #250	@ 0xfa
10000250:	f000 fc84 	bl	10000b5c <sleep_ms>
10000254:	e7f8      	b.n	10000248 <main+0x8>
10000256:	4b03      	ldr	r3, [pc, #12]	@ (10000264 <main+0x24>)
10000258:	4a03      	ldr	r2, [pc, #12]	@ (10000268 <main+0x28>)
1000025a:	212e      	movs	r1, #46	@ 0x2e
1000025c:	4803      	ldr	r0, [pc, #12]	@ (1000026c <main+0x2c>)
1000025e:	f002 f9e7 	bl	10002630 <__assert_func>
10000262:	bf00      	nop
10000264:	10002a88 	.word	0x10002a88
10000268:	10002f64 	.word	0x10002f64
1000026c:	10002a98 	.word	0x10002a98

10000270 <panic>:
10000270:	b40f      	push	{r0, r1, r2, r3}
10000272:	b500      	push	{lr}
10000274:	b083      	sub	sp, #12
10000276:	9c04      	ldr	r4, [sp, #16]
10000278:	4807      	ldr	r0, [pc, #28]	@ (10000298 <panic+0x28>)
1000027a:	f002 faf3 	bl	10002864 <__wrap_puts>
1000027e:	b13c      	cbz	r4, 10000290 <panic+0x20>
10000280:	a905      	add	r1, sp, #20
10000282:	9101      	str	r1, [sp, #4]
10000284:	4620      	mov	r0, r4
10000286:	f002 fafd 	bl	10002884 <__wrap_vprintf>
1000028a:	4804      	ldr	r0, [pc, #16]	@ (1000029c <panic+0x2c>)
1000028c:	f002 faea 	bl	10002864 <__wrap_puts>
10000290:	2001      	movs	r0, #1
10000292:	f002 f9c7 	bl	10002624 <_exit>
10000296:	bf00      	nop
10000298:	10002adc 	.word	0x10002adc
1000029c:	10002aec 	.word	0x10002aec

100002a0 <hw_claim_lock>:
100002a0:	f3ef 8010 	mrs	r0, PRIMASK
100002a4:	b672      	cpsid	i
100002a6:	4b06      	ldr	r3, [pc, #24]	@ (100002c0 <hw_claim_lock+0x20>)
100002a8:	e8d3 1fcf 	ldaexb	r1, [r3]
100002ac:	2201      	movs	r2, #1
100002ae:	2900      	cmp	r1, #0
100002b0:	d1fa      	bne.n	100002a8 <hw_claim_lock+0x8>
100002b2:	e8c3 2f41 	strexb	r1, r2, [r3]
100002b6:	2900      	cmp	r1, #0
100002b8:	d1f6      	bne.n	100002a8 <hw_claim_lock+0x8>
100002ba:	f3bf 8f5f 	dmb	sy
100002be:	4770      	bx	lr
100002c0:	20000773 	.word	0x20000773

100002c4 <hw_claim_unlock>:
100002c4:	2300      	movs	r3, #0
100002c6:	4a03      	ldr	r2, [pc, #12]	@ (100002d4 <hw_claim_unlock+0x10>)
100002c8:	e8c2 3f8f 	stlb	r3, [r2]
100002cc:	f380 8810 	msr	PRIMASK, r0
100002d0:	4770      	bx	lr
100002d2:	bf00      	nop
100002d4:	20000773 	.word	0x20000773

100002d8 <hw_claim_or_assert>:
100002d8:	b570      	push	{r4, r5, r6, lr}
100002da:	4605      	mov	r5, r0
100002dc:	460c      	mov	r4, r1
100002de:	4616      	mov	r6, r2
100002e0:	f7ff ffde 	bl	100002a0 <hw_claim_lock>
100002e4:	08e2      	lsrs	r2, r4, #3
100002e6:	5ca9      	ldrb	r1, [r5, r2]
100002e8:	f004 0c07 	and.w	ip, r4, #7
100002ec:	2301      	movs	r3, #1
100002ee:	fa03 f30c 	lsl.w	r3, r3, ip
100002f2:	4219      	tst	r1, r3
100002f4:	d105      	bne.n	10000302 <hw_claim_or_assert+0x2a>
100002f6:	b2db      	uxtb	r3, r3
100002f8:	430b      	orrs	r3, r1
100002fa:	54ab      	strb	r3, [r5, r2]
100002fc:	f7ff ffe2 	bl	100002c4 <hw_claim_unlock>
10000300:	bd70      	pop	{r4, r5, r6, pc}
10000302:	4621      	mov	r1, r4
10000304:	4630      	mov	r0, r6
10000306:	f7ff ffb3 	bl	10000270 <panic>
	...

1000030c <next_striped_spin_lock_num>:
1000030c:	4a05      	ldr	r2, [pc, #20]	@ (10000324 <next_striped_spin_lock_num+0x18>)
1000030e:	7810      	ldrb	r0, [r2, #0]
10000310:	1c43      	adds	r3, r0, #1
10000312:	b2db      	uxtb	r3, r3
10000314:	7013      	strb	r3, [r2, #0]
10000316:	2b17      	cmp	r3, #23
10000318:	d902      	bls.n	10000320 <next_striped_spin_lock_num+0x14>
1000031a:	4613      	mov	r3, r2
1000031c:	2210      	movs	r2, #16
1000031e:	701a      	strb	r2, [r3, #0]
10000320:	4770      	bx	lr
10000322:	bf00      	nop
10000324:	200005c0 	.word	0x200005c0

10000328 <spinlock_set_extexclall>:
10000328:	f04f 22e0 	mov.w	r2, #3758153728	@ 0xe000e000
1000032c:	6893      	ldr	r3, [r2, #8]
1000032e:	f043 5300 	orr.w	r3, r3, #536870912	@ 0x20000000
10000332:	6093      	str	r3, [r2, #8]
10000334:	4770      	bx	lr
	...

10000338 <spin_locks_reset>:
10000338:	2300      	movs	r3, #0
1000033a:	e005      	b.n	10000348 <spin_locks_reset+0x10>
1000033c:	4a04      	ldr	r2, [pc, #16]	@ (10000350 <spin_locks_reset+0x18>)
1000033e:	441a      	add	r2, r3
10000340:	2100      	movs	r1, #0
10000342:	e8c2 1f8f 	stlb	r1, [r2]
10000346:	3301      	adds	r3, #1
10000348:	2b1f      	cmp	r3, #31
1000034a:	d9f7      	bls.n	1000033c <spin_locks_reset+0x4>
1000034c:	4770      	bx	lr
1000034e:	bf00      	nop
10000350:	20000768 	.word	0x20000768

10000354 <set_raw_irq_handler_and_unlock>:
10000354:	4b06      	ldr	r3, [pc, #24]	@ (10000370 <set_raw_irq_handler_and_unlock+0x1c>)
10000356:	689b      	ldr	r3, [r3, #8]
10000358:	3010      	adds	r0, #16
1000035a:	f843 1020 	str.w	r1, [r3, r0, lsl #2]
1000035e:	f3bf 8f5f 	dmb	sy
10000362:	2300      	movs	r3, #0
10000364:	4903      	ldr	r1, [pc, #12]	@ (10000374 <set_raw_irq_handler_and_unlock+0x20>)
10000366:	e8c1 3f8f 	stlb	r3, [r1]
1000036a:	f382 8810 	msr	PRIMASK, r2
1000036e:	4770      	bx	lr
10000370:	e000ed00 	.word	0xe000ed00
10000374:	20000771 	.word	0x20000771

10000378 <nvic_ipr0>:
10000378:	4800      	ldr	r0, [pc, #0]	@ (1000037c <nvic_ipr0+0x4>)
1000037a:	4770      	bx	lr
1000037c:	e000e400 	.word	0xe000e400

10000380 <runtime_init_per_core_irq_priorities>:
10000380:	b508      	push	{r3, lr}
10000382:	f7ff fff9 	bl	10000378 <nvic_ipr0>
10000386:	2300      	movs	r3, #0
10000388:	e004      	b.n	10000394 <runtime_init_per_core_irq_priorities+0x14>
1000038a:	f04f 3280 	mov.w	r2, #2155905152	@ 0x80808080
1000038e:	f840 2b04 	str.w	r2, [r0], #4
10000392:	3301      	adds	r3, #1
10000394:	2b0c      	cmp	r3, #12
10000396:	d9f8      	bls.n	1000038a <runtime_init_per_core_irq_priorities+0xa>
10000398:	bd08      	pop	{r3, pc}
	...

1000039c <irq_set_mask_n_enabled>:
1000039c:	b13a      	cbz	r2, 100003ae <irq_set_mask_n_enabled+0x12>
1000039e:	4b06      	ldr	r3, [pc, #24]	@ (100003b8 <irq_set_mask_n_enabled+0x1c>)
100003a0:	f100 0260 	add.w	r2, r0, #96	@ 0x60
100003a4:	f843 1022 	str.w	r1, [r3, r2, lsl #2]
100003a8:	f843 1020 	str.w	r1, [r3, r0, lsl #2]
100003ac:	4770      	bx	lr
100003ae:	3020      	adds	r0, #32
100003b0:	4b01      	ldr	r3, [pc, #4]	@ (100003b8 <irq_set_mask_n_enabled+0x1c>)
100003b2:	f843 1020 	str.w	r1, [r3, r0, lsl #2]
100003b6:	4770      	bx	lr
100003b8:	e000e100 	.word	0xe000e100

100003bc <irq_set_enabled>:
100003bc:	b508      	push	{r3, lr}
100003be:	460a      	mov	r2, r1
100003c0:	f000 031f 	and.w	r3, r0, #31
100003c4:	2101      	movs	r1, #1
100003c6:	4099      	lsls	r1, r3
100003c8:	0940      	lsrs	r0, r0, #5
100003ca:	f7ff ffe7 	bl	1000039c <irq_set_mask_n_enabled>
100003ce:	bd08      	pop	{r3, pc}

100003d0 <irq_get_vtable_handler>:
100003d0:	4b02      	ldr	r3, [pc, #8]	@ (100003dc <irq_get_vtable_handler+0xc>)
100003d2:	689b      	ldr	r3, [r3, #8]
100003d4:	3010      	adds	r0, #16
100003d6:	f853 0020 	ldr.w	r0, [r3, r0, lsl #2]
100003da:	4770      	bx	lr
100003dc:	e000ed00 	.word	0xe000ed00

100003e0 <irq_set_exclusive_handler>:
100003e0:	b570      	push	{r4, r5, r6, lr}
100003e2:	4605      	mov	r5, r0
100003e4:	460c      	mov	r4, r1
100003e6:	f3ef 8610 	mrs	r6, PRIMASK
100003ea:	b672      	cpsid	i
100003ec:	4b0f      	ldr	r3, [pc, #60]	@ (1000042c <irq_set_exclusive_handler+0x4c>)
100003ee:	e8d3 1fcf 	ldaexb	r1, [r3]
100003f2:	2201      	movs	r2, #1
100003f4:	2900      	cmp	r1, #0
100003f6:	d1fa      	bne.n	100003ee <irq_set_exclusive_handler+0xe>
100003f8:	e8c3 2f41 	strexb	r1, r2, [r3]
100003fc:	2900      	cmp	r1, #0
100003fe:	d1f6      	bne.n	100003ee <irq_set_exclusive_handler+0xe>
10000400:	f3bf 8f5f 	dmb	sy
10000404:	f7ff ffe4 	bl	100003d0 <irq_get_vtable_handler>
10000408:	4b09      	ldr	r3, [pc, #36]	@ (10000430 <irq_set_exclusive_handler+0x50>)
1000040a:	4298      	cmp	r0, r3
1000040c:	d001      	beq.n	10000412 <irq_set_exclusive_handler+0x32>
1000040e:	42a0      	cmp	r0, r4
10000410:	d105      	bne.n	1000041e <irq_set_exclusive_handler+0x3e>
10000412:	4632      	mov	r2, r6
10000414:	4621      	mov	r1, r4
10000416:	4628      	mov	r0, r5
10000418:	f7ff ff9c 	bl	10000354 <set_raw_irq_handler_and_unlock>
1000041c:	bd70      	pop	{r4, r5, r6, pc}
1000041e:	4b05      	ldr	r3, [pc, #20]	@ (10000434 <irq_set_exclusive_handler+0x54>)
10000420:	4a05      	ldr	r2, [pc, #20]	@ (10000438 <irq_set_exclusive_handler+0x58>)
10000422:	21e1      	movs	r1, #225	@ 0xe1
10000424:	4805      	ldr	r0, [pc, #20]	@ (1000043c <irq_set_exclusive_handler+0x5c>)
10000426:	f002 f903 	bl	10002630 <__assert_func>
1000042a:	bf00      	nop
1000042c:	20000771 	.word	0x20000771
10000430:	1000011d 	.word	0x1000011d
10000434:	10002b5c 	.word	0x10002b5c
10000438:	10002f6c 	.word	0x10002f6c
1000043c:	10002b08 	.word	0x10002b08

10000440 <lock_init>:
10000440:	4b01      	ldr	r3, [pc, #4]	@ (10000448 <lock_init+0x8>)
10000442:	440b      	add	r3, r1
10000444:	6003      	str	r3, [r0, #0]
10000446:	4770      	bx	lr
10000448:	20000768 	.word	0x20000768

1000044c <mutex_init>:
1000044c:	b510      	push	{r4, lr}
1000044e:	4604      	mov	r4, r0
10000450:	f7ff ff5c 	bl	1000030c <next_striped_spin_lock_num>
10000454:	4601      	mov	r1, r0
10000456:	4620      	mov	r0, r4
10000458:	f7ff fff2 	bl	10000440 <lock_init>
1000045c:	23ff      	movs	r3, #255	@ 0xff
1000045e:	7123      	strb	r3, [r4, #4]
10000460:	f3bf 8f5f 	dmb	sy
10000464:	bd10      	pop	{r4, pc}

10000466 <recursive_mutex_init>:
10000466:	b510      	push	{r4, lr}
10000468:	4604      	mov	r4, r0
1000046a:	f7ff ff4f 	bl	1000030c <next_striped_spin_lock_num>
1000046e:	4601      	mov	r1, r0
10000470:	4620      	mov	r0, r4
10000472:	f7ff ffe5 	bl	10000440 <lock_init>
10000476:	23ff      	movs	r3, #255	@ 0xff
10000478:	7123      	strb	r3, [r4, #4]
1000047a:	2300      	movs	r3, #0
1000047c:	7163      	strb	r3, [r4, #5]
1000047e:	f3bf 8f5f 	dmb	sy
10000482:	bd10      	pop	{r4, pc}

10000484 <runtime_init_mutex>:
10000484:	b510      	push	{r4, lr}
10000486:	4c0d      	ldr	r4, [pc, #52]	@ (100004bc <runtime_init_mutex+0x38>)
10000488:	e009      	b.n	1000049e <runtime_init_mutex+0x1a>
1000048a:	4b0d      	ldr	r3, [pc, #52]	@ (100004c0 <runtime_init_mutex+0x3c>)
1000048c:	4a0d      	ldr	r2, [pc, #52]	@ (100004c4 <runtime_init_mutex+0x40>)
1000048e:	211a      	movs	r1, #26
10000490:	480d      	ldr	r0, [pc, #52]	@ (100004c8 <runtime_init_mutex+0x44>)
10000492:	f002 f8cd 	bl	10002630 <__assert_func>
10000496:	4620      	mov	r0, r4
10000498:	f7ff ffd8 	bl	1000044c <mutex_init>
1000049c:	3408      	adds	r4, #8
1000049e:	4b0b      	ldr	r3, [pc, #44]	@ (100004cc <runtime_init_mutex+0x48>)
100004a0:	429c      	cmp	r4, r3
100004a2:	d209      	bcs.n	100004b8 <runtime_init_mutex+0x34>
100004a4:	6823      	ldr	r3, [r4, #0]
100004a6:	2b00      	cmp	r3, #0
100004a8:	d0f5      	beq.n	10000496 <runtime_init_mutex+0x12>
100004aa:	2b01      	cmp	r3, #1
100004ac:	d1ed      	bne.n	1000048a <runtime_init_mutex+0x6>
100004ae:	4620      	mov	r0, r4
100004b0:	f7ff ffd9 	bl	10000466 <recursive_mutex_init>
100004b4:	3408      	adds	r4, #8
100004b6:	e7f2      	b.n	1000049e <runtime_init_mutex+0x1a>
100004b8:	bd10      	pop	{r4, pc}
100004ba:	bf00      	nop
100004bc:	200005dc 	.word	0x200005dc
100004c0:	10002b94 	.word	0x10002b94
100004c4:	10002fac 	.word	0x10002fac
100004c8:	10002bb4 	.word	0x10002bb4
100004cc:	200005e4 	.word	0x200005e4

100004d0 <ta_from_current_irq>:
100004d0:	4602      	mov	r2, r0
100004d2:	f3ef 8305 	mrs	r3, IPSR
100004d6:	b2db      	uxtb	r3, r3
100004d8:	3b10      	subs	r3, #16
100004da:	0899      	lsrs	r1, r3, #2
100004dc:	d004      	beq.n	100004e8 <ta_from_current_irq+0x18>
100004de:	4803      	ldr	r0, [pc, #12]	@ (100004ec <ta_from_current_irq+0x1c>)
100004e0:	f003 0303 	and.w	r3, r3, #3
100004e4:	6013      	str	r3, [r2, #0]
100004e6:	4770      	bx	lr
100004e8:	4801      	ldr	r0, [pc, #4]	@ (100004f0 <ta_from_current_irq+0x20>)
100004ea:	e7f9      	b.n	100004e0 <ta_from_current_irq+0x10>
100004ec:	400b8000 	.word	0x400b8000
100004f0:	400b0000 	.word	0x400b0000

100004f4 <make_alarm_id>:
100004f4:	ea41 4000 	orr.w	r0, r1, r0, lsl #16
100004f8:	4770      	bx	lr
	...

100004fc <sleep_until_callback>:
100004fc:	4b0d      	ldr	r3, [pc, #52]	@ (10000534 <sleep_until_callback+0x38>)
100004fe:	681a      	ldr	r2, [r3, #0]
10000500:	f3ef 8110 	mrs	r1, PRIMASK
10000504:	b672      	cpsid	i
10000506:	e8d2 cfcf 	ldaexb	ip, [r2]
1000050a:	2001      	movs	r0, #1
1000050c:	f1bc 0f00 	cmp.w	ip, #0
10000510:	d1f9      	bne.n	10000506 <sleep_until_callback+0xa>
10000512:	e8c2 0f4c 	strexb	ip, r0, [r2]
10000516:	f1bc 0f00 	cmp.w	ip, #0
1000051a:	d1f4      	bne.n	10000506 <sleep_until_callback+0xa>
1000051c:	f3bf 8f5f 	dmb	sy
10000520:	681a      	ldr	r2, [r3, #0]
10000522:	2300      	movs	r3, #0
10000524:	e8c2 3f8f 	stlb	r3, [r2]
10000528:	f381 8810 	msr	PRIMASK, r1
1000052c:	bf40      	sev
1000052e:	2000      	movs	r0, #0
10000530:	2100      	movs	r1, #0
10000532:	4770      	bx	lr
10000534:	200007f4 	.word	0x200007f4

10000538 <alarm_pool_irq_handler>:
10000538:	e92d 4ff0 	stmdb	sp!, {r4, r5, r6, r7, r8, r9, sl, fp, lr}
1000053c:	b085      	sub	sp, #20
1000053e:	a803      	add	r0, sp, #12
10000540:	f7ff ffc6 	bl	100004d0 <ta_from_current_irq>
10000544:	4ba6      	ldr	r3, [pc, #664]	@ (100007e0 <alarm_pool_irq_handler+0x2a8>)
10000546:	4298      	cmp	r0, r3
10000548:	bf14      	ite	ne
1000054a:	2300      	movne	r3, #0
1000054c:	2301      	moveq	r3, #1
1000054e:	9a03      	ldr	r2, [sp, #12]
10000550:	eb02 0383 	add.w	r3, r2, r3, lsl #2
10000554:	49a3      	ldr	r1, [pc, #652]	@ (100007e4 <alarm_pool_irq_handler+0x2ac>)
10000556:	f851 4023 	ldr.w	r4, [r1, r3, lsl #2]
1000055a:	7823      	ldrb	r3, [r4, #0]
1000055c:	429a      	cmp	r2, r3
1000055e:	d109      	bne.n	10000574 <alarm_pool_irq_handler+0x3c>
10000560:	4606      	mov	r6, r0
10000562:	f000 fba1 	bl	10000ca8 <timer_time_us_64>
10000566:	9b03      	ldr	r3, [sp, #12]
10000568:	2201      	movs	r2, #1
1000056a:	409a      	lsls	r2, r3
1000056c:	f506 5341 	add.w	r3, r6, #12352	@ 0x3040
10000570:	605a      	str	r2, [r3, #4]
10000572:	e06f      	b.n	10000654 <alarm_pool_irq_handler+0x11c>
10000574:	4b9c      	ldr	r3, [pc, #624]	@ (100007e8 <alarm_pool_irq_handler+0x2b0>)
10000576:	4a9d      	ldr	r2, [pc, #628]	@ (100007ec <alarm_pool_irq_handler+0x2b4>)
10000578:	2190      	movs	r1, #144	@ 0x90
1000057a:	489d      	ldr	r0, [pc, #628]	@ (100007f0 <alarm_pool_irq_handler+0x2b8>)
1000057c:	f002 f858 	bl	10002630 <__assert_func>
10000580:	696a      	ldr	r2, [r5, #20]
10000582:	6913      	ldr	r3, [r2, #16]
10000584:	9200      	str	r2, [sp, #0]
10000586:	4610      	mov	r0, r2
10000588:	4798      	blx	r3
1000058a:	b318      	cbz	r0, 100005d4 <alarm_pool_irq_handler+0x9c>
1000058c:	9a00      	ldr	r2, [sp, #0]
1000058e:	6813      	ldr	r3, [r2, #0]
10000590:	9300      	str	r3, [sp, #0]
10000592:	6853      	ldr	r3, [r2, #4]
10000594:	9301      	str	r3, [sp, #4]
10000596:	e08b      	b.n	100006b0 <alarm_pool_irq_handler+0x178>
10000598:	4630      	mov	r0, r6
1000059a:	f000 fb85 	bl	10000ca8 <timer_time_us_64>
1000059e:	9b00      	ldr	r3, [sp, #0]
100005a0:	181a      	adds	r2, r3, r0
100005a2:	9b01      	ldr	r3, [sp, #4]
100005a4:	eb43 0901 	adc.w	r9, r3, r1
100005a8:	e08f      	b.n	100006ca <alarm_pool_irq_handler+0x192>
100005aa:	469c      	mov	ip, r3
100005ac:	f9bc 5000 	ldrsh.w	r5, [ip]
100005b0:	2d00      	cmp	r5, #0
100005b2:	db0a      	blt.n	100005ca <alarm_pool_irq_handler+0x92>
100005b4:	eb05 0345 	add.w	r3, r5, r5, lsl #1
100005b8:	eb0e 03c3 	add.w	r3, lr, r3, lsl #3
100005bc:	6898      	ldr	r0, [r3, #8]
100005be:	68d9      	ldr	r1, [r3, #12]
100005c0:	1a10      	subs	r0, r2, r0
100005c2:	eb69 0101 	sbc.w	r1, r9, r1
100005c6:	2900      	cmp	r1, #0
100005c8:	daef      	bge.n	100005aa <alarm_pool_irq_handler+0x72>
100005ca:	f82a 500b 	strh.w	r5, [sl, fp]
100005ce:	f8ac 7000 	strh.w	r7, [ip]
100005d2:	e01c      	b.n	1000060e <alarm_pool_irq_handler+0xd6>
100005d4:	f93a 300b 	ldrsh.w	r3, [sl, fp]
100005d8:	8123      	strh	r3, [r4, #8]
100005da:	6923      	ldr	r3, [r4, #16]
100005dc:	f3ef 8210 	mrs	r2, PRIMASK
100005e0:	b672      	cpsid	i
100005e2:	e8d3 0fcf 	ldaexb	r0, [r3]
100005e6:	2101      	movs	r1, #1
100005e8:	2800      	cmp	r0, #0
100005ea:	d1fa      	bne.n	100005e2 <alarm_pool_irq_handler+0xaa>
100005ec:	e8c3 1f40 	strexb	r0, r1, [r3]
100005f0:	2800      	cmp	r0, #0
100005f2:	d1f6      	bne.n	100005e2 <alarm_pool_irq_handler+0xaa>
100005f4:	f3bf 8f5f 	dmb	sy
100005f8:	f9b4 3002 	ldrsh.w	r3, [r4, #2]
100005fc:	f82a 300b 	strh.w	r3, [sl, fp]
10000600:	8067      	strh	r7, [r4, #2]
10000602:	6921      	ldr	r1, [r4, #16]
10000604:	2300      	movs	r3, #0
10000606:	e8c1 3f8f 	stlb	r3, [r1]
1000060a:	f382 8810 	msr	PRIMASK, r2
1000060e:	88a3      	ldrh	r3, [r4, #4]
10000610:	f413 4f00 	tst.w	r3, #32768	@ 0x8000
10000614:	d071      	beq.n	100006fa <alarm_pool_irq_handler+0x1c2>
10000616:	79a3      	ldrb	r3, [r4, #6]
10000618:	2b00      	cmp	r3, #0
1000061a:	f040 80b3 	bne.w	10000784 <alarm_pool_irq_handler+0x24c>
1000061e:	4630      	mov	r0, r6
10000620:	f000 fb42 	bl	10000ca8 <timer_time_us_64>
10000624:	f9b4 3008 	ldrsh.w	r3, [r4, #8]
10000628:	2b00      	cmp	r3, #0
1000062a:	f2c0 80d5 	blt.w	100007d8 <alarm_pool_irq_handler+0x2a0>
1000062e:	6962      	ldr	r2, [r4, #20]
10000630:	eb03 0343 	add.w	r3, r3, r3, lsl #1
10000634:	eb02 02c3 	add.w	r2, r2, r3, lsl #3
10000638:	6893      	ldr	r3, [r2, #8]
1000063a:	68d2      	ldr	r2, [r2, #12]
1000063c:	9d03      	ldr	r5, [sp, #12]
1000063e:	3504      	adds	r5, #4
10000640:	f846 3025 	str.w	r3, [r6, r5, lsl #2]
10000644:	1a1b      	subs	r3, r3, r0
10000646:	eb62 0201 	sbc.w	r2, r2, r1
1000064a:	2b01      	cmp	r3, #1
1000064c:	f172 0200 	sbcs.w	r2, r2, #0
10000650:	f280 80c2 	bge.w	100007d8 <alarm_pool_irq_handler+0x2a0>
10000654:	9a03      	ldr	r2, [sp, #12]
10000656:	2301      	movs	r3, #1
10000658:	4093      	lsls	r3, r2
1000065a:	63f3      	str	r3, [r6, #60]	@ 0x3c
1000065c:	f9b4 7008 	ldrsh.w	r7, [r4, #8]
10000660:	2f00      	cmp	r7, #0
10000662:	dbd4      	blt.n	1000060e <alarm_pool_irq_handler+0xd6>
10000664:	f8d4 a014 	ldr.w	sl, [r4, #20]
10000668:	eb07 0547 	add.w	r5, r7, r7, lsl #1
1000066c:	ea4f 0bc5 	mov.w	fp, r5, lsl #3
10000670:	eb0a 05c5 	add.w	r5, sl, r5, lsl #3
10000674:	f8d5 8008 	ldr.w	r8, [r5, #8]
10000678:	f8d5 900c 	ldr.w	r9, [r5, #12]
1000067c:	ebb0 0008 	subs.w	r0, r0, r8
10000680:	eb61 0109 	sbc.w	r1, r1, r9
10000684:	2900      	cmp	r1, #0
10000686:	dbc2      	blt.n	1000060e <alarm_pool_irq_handler+0xd6>
10000688:	f1b9 0f00 	cmp.w	r9, #0
1000068c:	dba2      	blt.n	100005d4 <alarm_pool_irq_handler+0x9c>
1000068e:	692b      	ldr	r3, [r5, #16]
10000690:	461a      	mov	r2, r3
10000692:	9300      	str	r3, [sp, #0]
10000694:	4b57      	ldr	r3, [pc, #348]	@ (100007f4 <alarm_pool_irq_handler+0x2bc>)
10000696:	429a      	cmp	r2, r3
10000698:	f43f af72 	beq.w	10000580 <alarm_pool_irq_handler+0x48>
1000069c:	8869      	ldrh	r1, [r5, #2]
1000069e:	b289      	uxth	r1, r1
100006a0:	4638      	mov	r0, r7
100006a2:	f7ff ff27 	bl	100004f4 <make_alarm_id>
100006a6:	6969      	ldr	r1, [r5, #20]
100006a8:	9b00      	ldr	r3, [sp, #0]
100006aa:	4798      	blx	r3
100006ac:	9000      	str	r0, [sp, #0]
100006ae:	9101      	str	r1, [sp, #4]
100006b0:	9900      	ldr	r1, [sp, #0]
100006b2:	9a01      	ldr	r2, [sp, #4]
100006b4:	ea51 0302 	orrs.w	r3, r1, r2
100006b8:	d08c      	beq.n	100005d4 <alarm_pool_irq_handler+0x9c>
100006ba:	4613      	mov	r3, r2
100006bc:	2a00      	cmp	r2, #0
100006be:	f6bf af6b 	bge.w	10000598 <alarm_pool_irq_handler+0x60>
100006c2:	ebb8 0201 	subs.w	r2, r8, r1
100006c6:	eb69 0903 	sbc.w	r9, r9, r3
100006ca:	60aa      	str	r2, [r5, #8]
100006cc:	f8c5 900c 	str.w	r9, [r5, #12]
100006d0:	f93a 300b 	ldrsh.w	r3, [sl, fp]
100006d4:	2b00      	cmp	r3, #0
100006d6:	db9a      	blt.n	1000060e <alarm_pool_irq_handler+0xd6>
100006d8:	f8d4 e014 	ldr.w	lr, [r4, #20]
100006dc:	eb03 0143 	add.w	r1, r3, r3, lsl #1
100006e0:	eb0e 01c1 	add.w	r1, lr, r1, lsl #3
100006e4:	6888      	ldr	r0, [r1, #8]
100006e6:	68c9      	ldr	r1, [r1, #12]
100006e8:	1a10      	subs	r0, r2, r0
100006ea:	eb69 0101 	sbc.w	r1, r9, r1
100006ee:	2900      	cmp	r1, #0
100006f0:	db8d      	blt.n	1000060e <alarm_pool_irq_handler+0xd6>
100006f2:	46a4      	mov	ip, r4
100006f4:	f82c 3f08 	strh.w	r3, [ip, #8]!
100006f8:	e758      	b.n	100005ac <alarm_pool_irq_handler+0x74>
100006fa:	6923      	ldr	r3, [r4, #16]
100006fc:	f3ef 8210 	mrs	r2, PRIMASK
10000700:	b672      	cpsid	i
10000702:	e8d3 0fcf 	ldaexb	r0, [r3]
10000706:	2101      	movs	r1, #1
10000708:	2800      	cmp	r0, #0
1000070a:	d1fa      	bne.n	10000702 <alarm_pool_irq_handler+0x1ca>
1000070c:	e8c3 1f40 	strexb	r0, r1, [r3]
10000710:	2800      	cmp	r0, #0
10000712:	d1f6      	bne.n	10000702 <alarm_pool_irq_handler+0x1ca>
10000714:	f3bf 8f5f 	dmb	sy
10000718:	f8b4 8004 	ldrh.w	r8, [r4, #4]
1000071c:	fa0f f888 	sxth.w	r8, r8
10000720:	f64f 73ff 	movw	r3, #65535	@ 0xffff
10000724:	80a3      	strh	r3, [r4, #4]
10000726:	6921      	ldr	r1, [r4, #16]
10000728:	2300      	movs	r3, #0
1000072a:	e8c1 3f8f 	stlb	r3, [r1]
1000072e:	f382 8810 	msr	PRIMASK, r2
10000732:	e015      	b.n	10000760 <alarm_pool_irq_handler+0x228>
10000734:	461d      	mov	r5, r3
10000736:	f9b5 2000 	ldrsh.w	r2, [r5]
1000073a:	2a00      	cmp	r2, #0
1000073c:	db0a      	blt.n	10000754 <alarm_pool_irq_handler+0x21c>
1000073e:	eb02 0342 	add.w	r3, r2, r2, lsl #1
10000742:	eb0c 03c3 	add.w	r3, ip, r3, lsl #3
10000746:	6898      	ldr	r0, [r3, #8]
10000748:	68d9      	ldr	r1, [r3, #12]
1000074a:	1a38      	subs	r0, r7, r0
1000074c:	eb6e 0101 	sbc.w	r1, lr, r1
10000750:	2900      	cmp	r1, #0
10000752:	daef      	bge.n	10000734 <alarm_pool_irq_handler+0x1fc>
10000754:	f8a5 8000 	strh.w	r8, [r5]
10000758:	f93c 8009 	ldrsh.w	r8, [ip, r9]
1000075c:	f82c 2009 	strh.w	r2, [ip, r9]
10000760:	f1b8 0f00 	cmp.w	r8, #0
10000764:	f6ff af57 	blt.w	10000616 <alarm_pool_irq_handler+0xde>
10000768:	f8d4 c014 	ldr.w	ip, [r4, #20]
1000076c:	eb08 0348 	add.w	r3, r8, r8, lsl #1
10000770:	ea4f 09c3 	mov.w	r9, r3, lsl #3
10000774:	eb0c 03c3 	add.w	r3, ip, r3, lsl #3
10000778:	689f      	ldr	r7, [r3, #8]
1000077a:	f8d3 e00c 	ldr.w	lr, [r3, #12]
1000077e:	f104 0508 	add.w	r5, r4, #8
10000782:	e7d8      	b.n	10000736 <alarm_pool_irq_handler+0x1fe>
10000784:	2300      	movs	r3, #0
10000786:	71a3      	strb	r3, [r4, #6]
10000788:	f104 0c08 	add.w	ip, r4, #8
1000078c:	f9b4 3008 	ldrsh.w	r3, [r4, #8]
10000790:	e010      	b.n	100007b4 <alarm_pool_irq_handler+0x27c>
10000792:	f04f 38ff 	mov.w	r8, #4294967295	@ 0xffffffff
10000796:	f04f 39ff 	mov.w	r9, #4294967295	@ 0xffffffff
1000079a:	e9c0 8902 	strd	r8, r9, [r0, #8]
1000079e:	f9b4 0008 	ldrsh.w	r0, [r4, #8]
100007a2:	4298      	cmp	r0, r3
100007a4:	d005      	beq.n	100007b2 <alarm_pool_irq_handler+0x27a>
100007a6:	f8ac 2000 	strh.w	r2, [ip]
100007aa:	f9b4 0008 	ldrsh.w	r0, [r4, #8]
100007ae:	53c8      	strh	r0, [r1, r7]
100007b0:	8123      	strh	r3, [r4, #8]
100007b2:	4613      	mov	r3, r2
100007b4:	f1b3 3fff 	cmp.w	r3, #4294967295	@ 0xffffffff
100007b8:	f43f af31 	beq.w	1000061e <alarm_pool_irq_handler+0xe6>
100007bc:	6961      	ldr	r1, [r4, #20]
100007be:	eb03 0243 	add.w	r2, r3, r3, lsl #1
100007c2:	00d7      	lsls	r7, r2, #3
100007c4:	eb01 00c2 	add.w	r0, r1, r2, lsl #3
100007c8:	f931 2032 	ldrsh.w	r2, [r1, r2, lsl #3]
100007cc:	8845      	ldrh	r5, [r0, #2]
100007ce:	f415 4f00 	tst.w	r5, #32768	@ 0x8000
100007d2:	d1de      	bne.n	10000792 <alarm_pool_irq_handler+0x25a>
100007d4:	4684      	mov	ip, r0
100007d6:	e7ec      	b.n	100007b2 <alarm_pool_irq_handler+0x27a>
100007d8:	b005      	add	sp, #20
100007da:	e8bd 8ff0 	ldmia.w	sp!, {r4, r5, r6, r7, r8, r9, sl, fp, pc}
100007de:	bf00      	nop
100007e0:	400b8000 	.word	0x400b8000
100007e4:	200007d4 	.word	0x200007d4
100007e8:	10002c54 	.word	0x10002c54
100007ec:	10002fd8 	.word	0x10002fd8
100007f0:	10002c80 	.word	0x10002c80
100007f4:	10000539 	.word	0x10000539

100007f8 <ta_enable_irq_handler>:
100007f8:	b5f8      	push	{r3, r4, r5, r6, r7, lr}
100007fa:	4604      	mov	r4, r0
100007fc:	460d      	mov	r5, r1
100007fe:	4611      	mov	r1, r2
10000800:	4b0a      	ldr	r3, [pc, #40]	@ (1000082c <ta_enable_irq_handler+0x34>)
10000802:	4298      	cmp	r0, r3
10000804:	d010      	beq.n	10000828 <ta_enable_irq_handler+0x30>
10000806:	2600      	movs	r6, #0
10000808:	442e      	add	r6, r5
1000080a:	2701      	movs	r7, #1
1000080c:	fa07 f505 	lsl.w	r5, r7, r5
10000810:	6225      	str	r5, [r4, #32]
10000812:	4630      	mov	r0, r6
10000814:	f7ff fde4 	bl	100003e0 <irq_set_exclusive_handler>
10000818:	4639      	mov	r1, r7
1000081a:	4630      	mov	r0, r6
1000081c:	f7ff fdce 	bl	100003bc <irq_set_enabled>
10000820:	f504 5401 	add.w	r4, r4, #8256	@ 0x2040
10000824:	6025      	str	r5, [r4, #0]
10000826:	bdf8      	pop	{r3, r4, r5, r6, r7, pc}
10000828:	2604      	movs	r6, #4
1000082a:	e7ed      	b.n	10000808 <ta_enable_irq_handler+0x10>
1000082c:	400b8000 	.word	0x400b8000

10000830 <alarm_pool_post_alloc_init>:
10000830:	b5f8      	push	{r3, r4, r5, r6, r7, lr}
10000832:	4604      	mov	r4, r0
10000834:	460e      	mov	r6, r1
10000836:	4617      	mov	r7, r2
10000838:	461d      	mov	r5, r3
1000083a:	60c1      	str	r1, [r0, #12]
1000083c:	f7ff fd66 	bl	1000030c <next_striped_spin_lock_num>
10000840:	4b16      	ldr	r3, [pc, #88]	@ (1000089c <alarm_pool_post_alloc_init+0x6c>)
10000842:	4403      	add	r3, r0
10000844:	6123      	str	r3, [r4, #16]
10000846:	7027      	strb	r7, [r4, #0]
10000848:	b2ab      	uxth	r3, r5
1000084a:	8163      	strh	r3, [r4, #10]
1000084c:	f04f 4250 	mov.w	r2, #3489660928	@ 0xd0000000
10000850:	7812      	ldrb	r2, [r2, #0]
10000852:	7062      	strb	r2, [r4, #1]
10000854:	f64f 72ff 	movw	r2, #65535	@ 0xffff
10000858:	8122      	strh	r2, [r4, #8]
1000085a:	80a2      	strh	r2, [r4, #4]
1000085c:	3b01      	subs	r3, #1
1000085e:	8063      	strh	r3, [r4, #2]
10000860:	f04f 0c00 	mov.w	ip, #0
10000864:	e008      	b.n	10000878 <alarm_pool_post_alloc_init+0x48>
10000866:	f10c 30ff 	add.w	r0, ip, #4294967295	@ 0xffffffff
1000086a:	eb0c 0e4c 	add.w	lr, ip, ip, lsl #1
1000086e:	6963      	ldr	r3, [r4, #20]
10000870:	f823 003e 	strh.w	r0, [r3, lr, lsl #3]
10000874:	f10c 0c01 	add.w	ip, ip, #1
10000878:	45ac      	cmp	ip, r5
1000087a:	d3f4      	bcc.n	10000866 <alarm_pool_post_alloc_init+0x36>
1000087c:	4b08      	ldr	r3, [pc, #32]	@ (100008a0 <alarm_pool_post_alloc_init+0x70>)
1000087e:	429e      	cmp	r6, r3
10000880:	bf14      	ite	ne
10000882:	2300      	movne	r3, #0
10000884:	2301      	moveq	r3, #1
10000886:	eb07 0383 	add.w	r3, r7, r3, lsl #2
1000088a:	4a06      	ldr	r2, [pc, #24]	@ (100008a4 <alarm_pool_post_alloc_init+0x74>)
1000088c:	f842 4023 	str.w	r4, [r2, r3, lsl #2]
10000890:	4a05      	ldr	r2, [pc, #20]	@ (100008a8 <alarm_pool_post_alloc_init+0x78>)
10000892:	4639      	mov	r1, r7
10000894:	4630      	mov	r0, r6
10000896:	f7ff ffaf 	bl	100007f8 <ta_enable_irq_handler>
1000089a:	bdf8      	pop	{r3, r4, r5, r6, r7, pc}
1000089c:	20000768 	.word	0x20000768
100008a0:	400b8000 	.word	0x400b8000
100008a4:	200007d4 	.word	0x200007d4
100008a8:	10000539 	.word	0x10000539

100008ac <alarm_pool_get_default>:
100008ac:	b508      	push	{r3, lr}
100008ae:	4b05      	ldr	r3, [pc, #20]	@ (100008c4 <alarm_pool_get_default+0x18>)
100008b0:	691b      	ldr	r3, [r3, #16]
100008b2:	b10b      	cbz	r3, 100008b8 <alarm_pool_get_default+0xc>
100008b4:	4803      	ldr	r0, [pc, #12]	@ (100008c4 <alarm_pool_get_default+0x18>)
100008b6:	bd08      	pop	{r3, pc}
100008b8:	4b03      	ldr	r3, [pc, #12]	@ (100008c8 <alarm_pool_get_default+0x1c>)
100008ba:	4a04      	ldr	r2, [pc, #16]	@ (100008cc <alarm_pool_get_default+0x20>)
100008bc:	2165      	movs	r1, #101	@ 0x65
100008be:	4804      	ldr	r0, [pc, #16]	@ (100008d0 <alarm_pool_get_default+0x24>)
100008c0:	f001 feb6 	bl	10002630 <__assert_func>
100008c4:	200005c4 	.word	0x200005c4
100008c8:	10002ccc 	.word	0x10002ccc
100008cc:	10002fc0 	.word	0x10002fc0
100008d0:	10002c80 	.word	0x10002c80

100008d4 <alarm_pool_add_alarm_at_force_in_context>:
100008d4:	b5f8      	push	{r3, r4, r5, r6, r7, lr}
100008d6:	4604      	mov	r4, r0
100008d8:	469e      	mov	lr, r3
100008da:	6900      	ldr	r0, [r0, #16]
100008dc:	f3ef 8110 	mrs	r1, PRIMASK
100008e0:	b672      	cpsid	i
100008e2:	e8d0 6fcf 	ldaexb	r6, [r0]
100008e6:	2501      	movs	r5, #1
100008e8:	2e00      	cmp	r6, #0
100008ea:	d1fa      	bne.n	100008e2 <alarm_pool_add_alarm_at_force_in_context+0xe>
100008ec:	e8c0 5f46 	strexb	r6, r5, [r0]
100008f0:	2e00      	cmp	r6, #0
100008f2:	d1f6      	bne.n	100008e2 <alarm_pool_add_alarm_at_force_in_context+0xe>
100008f4:	f3bf 8f5f 	dmb	sy
100008f8:	f9b4 5002 	ldrsh.w	r5, [r4, #2]
100008fc:	6966      	ldr	r6, [r4, #20]
100008fe:	eb05 0045 	add.w	r0, r5, r5, lsl #1
10000902:	00c7      	lsls	r7, r0, #3
10000904:	eb06 00c0 	add.w	r0, r6, r0, lsl #3
10000908:	2d00      	cmp	r5, #0
1000090a:	db03      	blt.n	10000914 <alarm_pool_add_alarm_at_force_in_context+0x40>
1000090c:	f936 c007 	ldrsh.w	ip, [r6, r7]
10000910:	f8a4 c002 	strh.w	ip, [r4, #2]
10000914:	f04f 0c00 	mov.w	ip, #0
10000918:	6923      	ldr	r3, [r4, #16]
1000091a:	e8c3 cf8f 	stlb	ip, [r3]
1000091e:	f381 8810 	msr	PRIMASK, r1
10000922:	4565      	cmp	r5, ip
10000924:	db33      	blt.n	1000098e <alarm_pool_add_alarm_at_force_in_context+0xba>
10000926:	9906      	ldr	r1, [sp, #24]
10000928:	6101      	str	r1, [r0, #16]
1000092a:	9907      	ldr	r1, [sp, #28]
1000092c:	6141      	str	r1, [r0, #20]
1000092e:	6082      	str	r2, [r0, #8]
10000930:	f8c0 e00c 	str.w	lr, [r0, #12]
10000934:	8841      	ldrh	r1, [r0, #2]
10000936:	b289      	uxth	r1, r1
10000938:	3101      	adds	r1, #1
1000093a:	f3c1 010e 	ubfx	r1, r1, #0, #15
1000093e:	b901      	cbnz	r1, 10000942 <alarm_pool_add_alarm_at_force_in_context+0x6e>
10000940:	2101      	movs	r1, #1
10000942:	8041      	strh	r1, [r0, #2]
10000944:	4628      	mov	r0, r5
10000946:	f7ff fdd5 	bl	100004f4 <make_alarm_id>
1000094a:	6923      	ldr	r3, [r4, #16]
1000094c:	f3ef 8210 	mrs	r2, PRIMASK
10000950:	b672      	cpsid	i
10000952:	e8d3 cfcf 	ldaexb	ip, [r3]
10000956:	2101      	movs	r1, #1
10000958:	f1bc 0f00 	cmp.w	ip, #0
1000095c:	d1f9      	bne.n	10000952 <alarm_pool_add_alarm_at_force_in_context+0x7e>
1000095e:	e8c3 1f4c 	strexb	ip, r1, [r3]
10000962:	f1bc 0f00 	cmp.w	ip, #0
10000966:	d1f4      	bne.n	10000952 <alarm_pool_add_alarm_at_force_in_context+0x7e>
10000968:	f3bf 8f5f 	dmb	sy
1000096c:	88a3      	ldrh	r3, [r4, #4]
1000096e:	53f3      	strh	r3, [r6, r7]
10000970:	80a5      	strh	r5, [r4, #4]
10000972:	6921      	ldr	r1, [r4, #16]
10000974:	2300      	movs	r3, #0
10000976:	e8c1 3f8f 	stlb	r3, [r1]
1000097a:	f382 8810 	msr	PRIMASK, r2
1000097e:	68e3      	ldr	r3, [r4, #12]
10000980:	7821      	ldrb	r1, [r4, #0]
10000982:	2201      	movs	r2, #1
10000984:	408a      	lsls	r2, r1
10000986:	f503 5301 	add.w	r3, r3, #8256	@ 0x2040
1000098a:	605a      	str	r2, [r3, #4]
1000098c:	bdf8      	pop	{r3, r4, r5, r6, r7, pc}
1000098e:	f04f 30ff 	mov.w	r0, #4294967295	@ 0xffffffff
10000992:	e7fb      	b.n	1000098c <alarm_pool_add_alarm_at_force_in_context+0xb8>

10000994 <alarm_pool_add_alarm_at>:
10000994:	b570      	push	{r4, r5, r6, lr}
10000996:	b082      	sub	sp, #8
10000998:	4606      	mov	r6, r0
1000099a:	4615      	mov	r5, r2
1000099c:	461c      	mov	r4, r3
1000099e:	f89d 3020 	ldrb.w	r3, [sp, #32]
100009a2:	b933      	cbnz	r3, 100009b2 <alarm_pool_add_alarm_at+0x1e>
100009a4:	f000 f996 	bl	10000cd4 <time_us_64>
100009a8:	4285      	cmp	r5, r0
100009aa:	eb64 0101 	sbc.w	r1, r4, r1
100009ae:	2900      	cmp	r1, #0
100009b0:	db0a      	blt.n	100009c8 <alarm_pool_add_alarm_at+0x34>
100009b2:	9b07      	ldr	r3, [sp, #28]
100009b4:	9301      	str	r3, [sp, #4]
100009b6:	9b06      	ldr	r3, [sp, #24]
100009b8:	9300      	str	r3, [sp, #0]
100009ba:	462a      	mov	r2, r5
100009bc:	4623      	mov	r3, r4
100009be:	4630      	mov	r0, r6
100009c0:	f7ff ff88 	bl	100008d4 <alarm_pool_add_alarm_at_force_in_context>
100009c4:	b002      	add	sp, #8
100009c6:	bd70      	pop	{r4, r5, r6, pc}
100009c8:	2000      	movs	r0, #0
100009ca:	e7fb      	b.n	100009c4 <alarm_pool_add_alarm_at+0x30>

100009cc <add_alarm_at>:
100009cc:	b5f0      	push	{r4, r5, r6, r7, lr}
100009ce:	b085      	sub	sp, #20
100009d0:	4605      	mov	r5, r0
100009d2:	460c      	mov	r4, r1
100009d4:	4616      	mov	r6, r2
100009d6:	461f      	mov	r7, r3
100009d8:	f7ff ff68 	bl	100008ac <alarm_pool_get_default>
100009dc:	f89d 3028 	ldrb.w	r3, [sp, #40]	@ 0x28
100009e0:	9302      	str	r3, [sp, #8]
100009e2:	9701      	str	r7, [sp, #4]
100009e4:	9600      	str	r6, [sp, #0]
100009e6:	462a      	mov	r2, r5
100009e8:	4623      	mov	r3, r4
100009ea:	f7ff ffd3 	bl	10000994 <alarm_pool_add_alarm_at>
100009ee:	b005      	add	sp, #20
100009f0:	bdf0      	pop	{r4, r5, r6, r7, pc}

100009f2 <alarm_pool_cancel_alarm>:
100009f2:	4603      	mov	r3, r0
100009f4:	8940      	ldrh	r0, [r0, #10]
100009f6:	ebb0 4f21 	cmp.w	r0, r1, asr #16
100009fa:	dd31      	ble.n	10000a60 <alarm_pool_cancel_alarm+0x6e>
100009fc:	b510      	push	{r4, lr}
100009fe:	140a      	asrs	r2, r1, #16
10000a00:	6958      	ldr	r0, [r3, #20]
10000a02:	eb02 0242 	add.w	r2, r2, r2, lsl #1
10000a06:	eb00 00c2 	add.w	r0, r0, r2, lsl #3
10000a0a:	691a      	ldr	r2, [r3, #16]
10000a0c:	f3ef 8c10 	mrs	ip, PRIMASK
10000a10:	b672      	cpsid	i
10000a12:	e8d2 4fcf 	ldaexb	r4, [r2]
10000a16:	f05f 0e01 	movs.w	lr, #1
10000a1a:	2c00      	cmp	r4, #0
10000a1c:	d1f9      	bne.n	10000a12 <alarm_pool_cancel_alarm+0x20>
10000a1e:	e8c2 ef44 	strexb	r4, lr, [r2]
10000a22:	2c00      	cmp	r4, #0
10000a24:	d1f5      	bne.n	10000a12 <alarm_pool_cancel_alarm+0x20>
10000a26:	f3bf 8f5f 	dmb	sy
10000a2a:	8842      	ldrh	r2, [r0, #2]
10000a2c:	b292      	uxth	r2, r2
10000a2e:	b289      	uxth	r1, r1
10000a30:	428a      	cmp	r2, r1
10000a32:	d00f      	beq.n	10000a54 <alarm_pool_cancel_alarm+0x62>
10000a34:	2000      	movs	r0, #0
10000a36:	6919      	ldr	r1, [r3, #16]
10000a38:	2200      	movs	r2, #0
10000a3a:	e8c1 2f8f 	stlb	r2, [r1]
10000a3e:	f38c 8810 	msr	PRIMASK, ip
10000a42:	b130      	cbz	r0, 10000a52 <alarm_pool_cancel_alarm+0x60>
10000a44:	68da      	ldr	r2, [r3, #12]
10000a46:	781b      	ldrb	r3, [r3, #0]
10000a48:	2101      	movs	r1, #1
10000a4a:	4099      	lsls	r1, r3
10000a4c:	f502 5301 	add.w	r3, r2, #8256	@ 0x2040
10000a50:	6059      	str	r1, [r3, #4]
10000a52:	bd10      	pop	{r4, pc}
10000a54:	f442 4200 	orr.w	r2, r2, #32768	@ 0x8000
10000a58:	8042      	strh	r2, [r0, #2]
10000a5a:	2001      	movs	r0, #1
10000a5c:	7198      	strb	r0, [r3, #6]
10000a5e:	e7ea      	b.n	10000a36 <alarm_pool_cancel_alarm+0x44>
10000a60:	2000      	movs	r0, #0
10000a62:	4770      	bx	lr

10000a64 <cancel_alarm>:
10000a64:	b510      	push	{r4, lr}
10000a66:	4604      	mov	r4, r0
10000a68:	f7ff ff20 	bl	100008ac <alarm_pool_get_default>
10000a6c:	4621      	mov	r1, r4
10000a6e:	f7ff ffc0 	bl	100009f2 <alarm_pool_cancel_alarm>
10000a72:	bd10      	pop	{r4, pc}

10000a74 <sleep_until>:
10000a74:	b5f0      	push	{r4, r5, r6, r7, lr}
10000a76:	b083      	sub	sp, #12
10000a78:	f3ef 8305 	mrs	r3, IPSR
10000a7c:	b2db      	uxtb	r3, r3
10000a7e:	b9cb      	cbnz	r3, 10000ab4 <sleep_until+0x40>
10000a80:	4605      	mov	r5, r0
10000a82:	460f      	mov	r7, r1
10000a84:	1f86      	subs	r6, r0, #6
10000a86:	f141 34ff 	adc.w	r4, r1, #4294967295	@ 0xffffffff
10000a8a:	42b0      	cmp	r0, r6
10000a8c:	eb71 0304 	sbcs.w	r3, r1, r4
10000a90:	d201      	bcs.n	10000a96 <sleep_until+0x22>
10000a92:	2600      	movs	r6, #0
10000a94:	4634      	mov	r4, r6
10000a96:	f000 f91d 	bl	10000cd4 <time_us_64>
10000a9a:	1a30      	subs	r0, r6, r0
10000a9c:	eb64 0301 	sbc.w	r3, r4, r1
10000aa0:	2801      	cmp	r0, #1
10000aa2:	f173 0300 	sbcs.w	r3, r3, #0
10000aa6:	da08      	bge.n	10000aba <sleep_until+0x46>
10000aa8:	4628      	mov	r0, r5
10000aaa:	4639      	mov	r1, r7
10000aac:	f000 f91a 	bl	10000ce4 <busy_wait_until>
10000ab0:	b003      	add	sp, #12
10000ab2:	bdf0      	pop	{r4, r5, r6, r7, pc}
10000ab4:	481c      	ldr	r0, [pc, #112]	@ (10000b28 <sleep_until+0xb4>)
10000ab6:	f7ff fbdb 	bl	10000270 <panic>
10000aba:	2300      	movs	r3, #0
10000abc:	9300      	str	r3, [sp, #0]
10000abe:	4a1b      	ldr	r2, [pc, #108]	@ (10000b2c <sleep_until+0xb8>)
10000ac0:	4630      	mov	r0, r6
10000ac2:	4621      	mov	r1, r4
10000ac4:	f7ff ff82 	bl	100009cc <add_alarm_at>
10000ac8:	2800      	cmp	r0, #0
10000aca:	da1e      	bge.n	10000b0a <sleep_until+0x96>
10000acc:	e7ec      	b.n	10000aa8 <sleep_until+0x34>
10000ace:	2300      	movs	r3, #0
10000ad0:	e000      	b.n	10000ad4 <sleep_until+0x60>
10000ad2:	2300      	movs	r3, #0
10000ad4:	2b00      	cmp	r3, #0
10000ad6:	d1e7      	bne.n	10000aa8 <sleep_until+0x34>
10000ad8:	4b15      	ldr	r3, [pc, #84]	@ (10000b30 <sleep_until+0xbc>)
10000ada:	681a      	ldr	r2, [r3, #0]
10000adc:	f3ef 8110 	mrs	r1, PRIMASK
10000ae0:	b672      	cpsid	i
10000ae2:	e8d2 cfcf 	ldaexb	ip, [r2]
10000ae6:	2001      	movs	r0, #1
10000ae8:	f1bc 0f00 	cmp.w	ip, #0
10000aec:	d1f9      	bne.n	10000ae2 <sleep_until+0x6e>
10000aee:	e8c2 0f4c 	strexb	ip, r0, [r2]
10000af2:	f1bc 0f00 	cmp.w	ip, #0
10000af6:	d1f4      	bne.n	10000ae2 <sleep_until+0x6e>
10000af8:	f3bf 8f5f 	dmb	sy
10000afc:	681a      	ldr	r2, [r3, #0]
10000afe:	2300      	movs	r3, #0
10000b00:	e8c2 3f8f 	stlb	r3, [r2]
10000b04:	f381 8810 	msr	PRIMASK, r1
10000b08:	bf20      	wfe
10000b0a:	4b0a      	ldr	r3, [pc, #40]	@ (10000b34 <sleep_until+0xc0>)
10000b0c:	6a5b      	ldr	r3, [r3, #36]	@ 0x24
10000b0e:	429c      	cmp	r4, r3
10000b10:	d8df      	bhi.n	10000ad2 <sleep_until+0x5e>
10000b12:	4908      	ldr	r1, [pc, #32]	@ (10000b34 <sleep_until+0xc0>)
10000b14:	6a89      	ldr	r1, [r1, #40]	@ 0x28
10000b16:	42b1      	cmp	r1, r6
10000b18:	d203      	bcs.n	10000b22 <sleep_until+0xae>
10000b1a:	429c      	cmp	r4, r3
10000b1c:	d0d7      	beq.n	10000ace <sleep_until+0x5a>
10000b1e:	2301      	movs	r3, #1
10000b20:	e7d8      	b.n	10000ad4 <sleep_until+0x60>
10000b22:	2301      	movs	r3, #1
10000b24:	e7d6      	b.n	10000ad4 <sleep_until+0x60>
10000b26:	bf00      	nop
10000b28:	10002cf0 	.word	0x10002cf0
10000b2c:	100004fd 	.word	0x100004fd
10000b30:	200007f4 	.word	0x200007f4
10000b34:	400b0000 	.word	0x400b0000

10000b38 <sleep_us>:
10000b38:	b538      	push	{r3, r4, r5, lr}
10000b3a:	4604      	mov	r4, r0
10000b3c:	460d      	mov	r5, r1
10000b3e:	f000 f8c9 	bl	10000cd4 <time_us_64>
10000b42:	1820      	adds	r0, r4, r0
10000b44:	eb45 0101 	adc.w	r1, r5, r1
10000b48:	2900      	cmp	r1, #0
10000b4a:	db02      	blt.n	10000b52 <sleep_us+0x1a>
10000b4c:	f7ff ff92 	bl	10000a74 <sleep_until>
10000b50:	bd38      	pop	{r3, r4, r5, pc}
10000b52:	f04f 30ff 	mov.w	r0, #4294967295	@ 0xffffffff
10000b56:	f06f 4100 	mvn.w	r1, #2147483648	@ 0x80000000
10000b5a:	e7f7      	b.n	10000b4c <sleep_us+0x14>

10000b5c <sleep_ms>:
10000b5c:	b508      	push	{r3, lr}
10000b5e:	0ec3      	lsrs	r3, r0, #27
10000b60:	0141      	lsls	r1, r0, #5
10000b62:	1a09      	subs	r1, r1, r0
10000b64:	f163 0300 	sbc.w	r3, r3, #0
10000b68:	009b      	lsls	r3, r3, #2
10000b6a:	ea43 7391 	orr.w	r3, r3, r1, lsr #30
10000b6e:	0089      	lsls	r1, r1, #2
10000b70:	1809      	adds	r1, r1, r0
10000b72:	f143 0300 	adc.w	r3, r3, #0
10000b76:	00db      	lsls	r3, r3, #3
10000b78:	00c8      	lsls	r0, r1, #3
10000b7a:	ea43 7151 	orr.w	r1, r3, r1, lsr #29
10000b7e:	f7ff ffdb 	bl	10000b38 <sleep_us>
10000b82:	bd08      	pop	{r3, pc}

10000b84 <best_effort_wfe_or_timeout>:
10000b84:	b530      	push	{r4, r5, lr}
10000b86:	b083      	sub	sp, #12
10000b88:	4605      	mov	r5, r0
10000b8a:	460c      	mov	r4, r1
10000b8c:	f3ef 8305 	mrs	r3, IPSR
10000b90:	b2db      	uxtb	r3, r3
10000b92:	b193      	cbz	r3, 10000bba <best_effort_wfe_or_timeout+0x36>
10000b94:	4b2a      	ldr	r3, [pc, #168]	@ (10000c40 <best_effort_wfe_or_timeout+0xbc>)
10000b96:	6a5b      	ldr	r3, [r3, #36]	@ 0x24
10000b98:	4299      	cmp	r1, r3
10000b9a:	d809      	bhi.n	10000bb0 <best_effort_wfe_or_timeout+0x2c>
10000b9c:	4a28      	ldr	r2, [pc, #160]	@ (10000c40 <best_effort_wfe_or_timeout+0xbc>)
10000b9e:	6a92      	ldr	r2, [r2, #40]	@ 0x28
10000ba0:	4282      	cmp	r2, r0
10000ba2:	d208      	bcs.n	10000bb6 <best_effort_wfe_or_timeout+0x32>
10000ba4:	4299      	cmp	r1, r3
10000ba6:	d001      	beq.n	10000bac <best_effort_wfe_or_timeout+0x28>
10000ba8:	2001      	movs	r0, #1
10000baa:	e002      	b.n	10000bb2 <best_effort_wfe_or_timeout+0x2e>
10000bac:	2000      	movs	r0, #0
10000bae:	e000      	b.n	10000bb2 <best_effort_wfe_or_timeout+0x2e>
10000bb0:	2000      	movs	r0, #0
10000bb2:	b003      	add	sp, #12
10000bb4:	bd30      	pop	{r4, r5, pc}
10000bb6:	2001      	movs	r0, #1
10000bb8:	e7fb      	b.n	10000bb2 <best_effort_wfe_or_timeout+0x2e>
10000bba:	2300      	movs	r3, #0
10000bbc:	9300      	str	r3, [sp, #0]
10000bbe:	4a21      	ldr	r2, [pc, #132]	@ (10000c44 <best_effort_wfe_or_timeout+0xc0>)
10000bc0:	f7ff ff04 	bl	100009cc <add_alarm_at>
10000bc4:	2800      	cmp	r0, #0
10000bc6:	dd0d      	ble.n	10000be4 <best_effort_wfe_or_timeout+0x60>
10000bc8:	bf40      	sev
10000bca:	bf20      	wfe
10000bcc:	4b1c      	ldr	r3, [pc, #112]	@ (10000c40 <best_effort_wfe_or_timeout+0xbc>)
10000bce:	6a5b      	ldr	r3, [r3, #36]	@ 0x24
10000bd0:	429c      	cmp	r4, r3
10000bd2:	d81b      	bhi.n	10000c0c <best_effort_wfe_or_timeout+0x88>
10000bd4:	4a1a      	ldr	r2, [pc, #104]	@ (10000c40 <best_effort_wfe_or_timeout+0xbc>)
10000bd6:	6a92      	ldr	r2, [r2, #40]	@ 0x28
10000bd8:	42aa      	cmp	r2, r5
10000bda:	d228      	bcs.n	10000c2e <best_effort_wfe_or_timeout+0xaa>
10000bdc:	429c      	cmp	r4, r3
10000bde:	d013      	beq.n	10000c08 <best_effort_wfe_or_timeout+0x84>
10000be0:	2301      	movs	r3, #1
10000be2:	e014      	b.n	10000c0e <best_effort_wfe_or_timeout+0x8a>
10000be4:	4b16      	ldr	r3, [pc, #88]	@ (10000c40 <best_effort_wfe_or_timeout+0xbc>)
10000be6:	6a5b      	ldr	r3, [r3, #36]	@ 0x24
10000be8:	429c      	cmp	r4, r3
10000bea:	d809      	bhi.n	10000c00 <best_effort_wfe_or_timeout+0x7c>
10000bec:	4a14      	ldr	r2, [pc, #80]	@ (10000c40 <best_effort_wfe_or_timeout+0xbc>)
10000bee:	6a92      	ldr	r2, [r2, #40]	@ 0x28
10000bf0:	42aa      	cmp	r2, r5
10000bf2:	d207      	bcs.n	10000c04 <best_effort_wfe_or_timeout+0x80>
10000bf4:	429c      	cmp	r4, r3
10000bf6:	d001      	beq.n	10000bfc <best_effort_wfe_or_timeout+0x78>
10000bf8:	2001      	movs	r0, #1
10000bfa:	e7da      	b.n	10000bb2 <best_effort_wfe_or_timeout+0x2e>
10000bfc:	2000      	movs	r0, #0
10000bfe:	e7d8      	b.n	10000bb2 <best_effort_wfe_or_timeout+0x2e>
10000c00:	2000      	movs	r0, #0
10000c02:	e7d6      	b.n	10000bb2 <best_effort_wfe_or_timeout+0x2e>
10000c04:	2001      	movs	r0, #1
10000c06:	e7d4      	b.n	10000bb2 <best_effort_wfe_or_timeout+0x2e>
10000c08:	2300      	movs	r3, #0
10000c0a:	e000      	b.n	10000c0e <best_effort_wfe_or_timeout+0x8a>
10000c0c:	2300      	movs	r3, #0
10000c0e:	b903      	cbnz	r3, 10000c12 <best_effort_wfe_or_timeout+0x8e>
10000c10:	bf20      	wfe
10000c12:	f7ff ff27 	bl	10000a64 <cancel_alarm>
10000c16:	4b0a      	ldr	r3, [pc, #40]	@ (10000c40 <best_effort_wfe_or_timeout+0xbc>)
10000c18:	6a5b      	ldr	r3, [r3, #36]	@ 0x24
10000c1a:	429c      	cmp	r4, r3
10000c1c:	d80b      	bhi.n	10000c36 <best_effort_wfe_or_timeout+0xb2>
10000c1e:	4a08      	ldr	r2, [pc, #32]	@ (10000c40 <best_effort_wfe_or_timeout+0xbc>)
10000c20:	6a92      	ldr	r2, [r2, #40]	@ 0x28
10000c22:	42aa      	cmp	r2, r5
10000c24:	d209      	bcs.n	10000c3a <best_effort_wfe_or_timeout+0xb6>
10000c26:	429c      	cmp	r4, r3
10000c28:	d003      	beq.n	10000c32 <best_effort_wfe_or_timeout+0xae>
10000c2a:	2001      	movs	r0, #1
10000c2c:	e7c1      	b.n	10000bb2 <best_effort_wfe_or_timeout+0x2e>
10000c2e:	2301      	movs	r3, #1
10000c30:	e7ed      	b.n	10000c0e <best_effort_wfe_or_timeout+0x8a>
10000c32:	2000      	movs	r0, #0
10000c34:	e7bd      	b.n	10000bb2 <best_effort_wfe_or_timeout+0x2e>
10000c36:	2000      	movs	r0, #0
10000c38:	e7bb      	b.n	10000bb2 <best_effort_wfe_or_timeout+0x2e>
10000c3a:	2001      	movs	r0, #1
10000c3c:	e7b9      	b.n	10000bb2 <best_effort_wfe_or_timeout+0x2e>
10000c3e:	bf00      	nop
10000c40:	400b0000 	.word	0x400b0000
10000c44:	100004fd 	.word	0x100004fd

10000c48 <alarm_pool_get_default_timer>:
10000c48:	4800      	ldr	r0, [pc, #0]	@ (10000c4c <alarm_pool_get_default_timer+0x4>)
10000c4a:	4770      	bx	lr
10000c4c:	400b0000 	.word	0x400b0000

10000c50 <runtime_init_default_alarm_pool>:
10000c50:	b510      	push	{r4, lr}
10000c52:	4b0a      	ldr	r3, [pc, #40]	@ (10000c7c <runtime_init_default_alarm_pool+0x2c>)
10000c54:	691b      	ldr	r3, [r3, #16]
10000c56:	b123      	cbz	r3, 10000c62 <runtime_init_default_alarm_pool+0x12>
10000c58:	210a      	movs	r1, #10
10000c5a:	4809      	ldr	r0, [pc, #36]	@ (10000c80 <runtime_init_default_alarm_pool+0x30>)
10000c5c:	f7ff fbf0 	bl	10000440 <lock_init>
10000c60:	bd10      	pop	{r4, pc}
10000c62:	f7ff fff1 	bl	10000c48 <alarm_pool_get_default_timer>
10000c66:	4604      	mov	r4, r0
10000c68:	2103      	movs	r1, #3
10000c6a:	f000 f80b 	bl	10000c84 <timer_hardware_alarm_claim>
10000c6e:	2310      	movs	r3, #16
10000c70:	2203      	movs	r2, #3
10000c72:	4621      	mov	r1, r4
10000c74:	4801      	ldr	r0, [pc, #4]	@ (10000c7c <runtime_init_default_alarm_pool+0x2c>)
10000c76:	f7ff fddb 	bl	10000830 <alarm_pool_post_alloc_init>
10000c7a:	e7ed      	b.n	10000c58 <runtime_init_default_alarm_pool+0x8>
10000c7c:	200005c4 	.word	0x200005c4
10000c80:	200007f4 	.word	0x200007f4

10000c84 <timer_hardware_alarm_claim>:
10000c84:	b510      	push	{r4, lr}
10000c86:	4a05      	ldr	r2, [pc, #20]	@ (10000c9c <timer_hardware_alarm_claim+0x18>)
10000c88:	4c05      	ldr	r4, [pc, #20]	@ (10000ca0 <timer_hardware_alarm_claim+0x1c>)
10000c8a:	4b06      	ldr	r3, [pc, #24]	@ (10000ca4 <timer_hardware_alarm_claim+0x20>)
10000c8c:	42a0      	cmp	r0, r4
10000c8e:	bf14      	ite	ne
10000c90:	4618      	movne	r0, r3
10000c92:	1c58      	addeq	r0, r3, #1
10000c94:	f7ff fb20 	bl	100002d8 <hw_claim_or_assert>
10000c98:	bd10      	pop	{r4, pc}
10000c9a:	bf00      	nop
10000c9c:	10002d40 	.word	0x10002d40
10000ca0:	400b8000 	.word	0x400b8000
10000ca4:	20000788 	.word	0x20000788

10000ca8 <timer_time_us_64>:
10000ca8:	4602      	mov	r2, r0
10000caa:	6a43      	ldr	r3, [r0, #36]	@ 0x24
10000cac:	6a90      	ldr	r0, [r2, #40]	@ 0x28
10000cae:	4619      	mov	r1, r3
10000cb0:	6a53      	ldr	r3, [r2, #36]	@ 0x24
10000cb2:	4299      	cmp	r1, r3
10000cb4:	d1fa      	bne.n	10000cac <timer_time_us_64+0x4>
10000cb6:	4770      	bx	lr

10000cb8 <timer_busy_wait_until>:
10000cb8:	6a41      	ldr	r1, [r0, #36]	@ 0x24
10000cba:	e000      	b.n	10000cbe <timer_busy_wait_until+0x6>
10000cbc:	6a41      	ldr	r1, [r0, #36]	@ 0x24
10000cbe:	4299      	cmp	r1, r3
10000cc0:	d3fc      	bcc.n	10000cbc <timer_busy_wait_until+0x4>
10000cc2:	e000      	b.n	10000cc6 <timer_busy_wait_until+0xe>
10000cc4:	6a41      	ldr	r1, [r0, #36]	@ 0x24
10000cc6:	4299      	cmp	r1, r3
10000cc8:	d102      	bne.n	10000cd0 <timer_busy_wait_until+0x18>
10000cca:	6a81      	ldr	r1, [r0, #40]	@ 0x28
10000ccc:	4291      	cmp	r1, r2
10000cce:	d3f9      	bcc.n	10000cc4 <timer_busy_wait_until+0xc>
10000cd0:	4770      	bx	lr
	...

10000cd4 <time_us_64>:
10000cd4:	b508      	push	{r3, lr}
10000cd6:	4802      	ldr	r0, [pc, #8]	@ (10000ce0 <time_us_64+0xc>)
10000cd8:	f7ff ffe6 	bl	10000ca8 <timer_time_us_64>
10000cdc:	bd08      	pop	{r3, pc}
10000cde:	bf00      	nop
10000ce0:	400b0000 	.word	0x400b0000

10000ce4 <busy_wait_until>:
10000ce4:	b508      	push	{r3, lr}
10000ce6:	4602      	mov	r2, r0
10000ce8:	460b      	mov	r3, r1
10000cea:	4802      	ldr	r0, [pc, #8]	@ (10000cf4 <busy_wait_until+0x10>)
10000cec:	f7ff ffe4 	bl	10000cb8 <timer_busy_wait_until>
10000cf0:	bd08      	pop	{r3, pc}
10000cf2:	bf00      	nop
10000cf4:	400b0000 	.word	0x400b0000

10000cf8 <clock_configure_internal>:
10000cf8:	b570      	push	{r4, r5, r6, lr}
10000cfa:	4616      	mov	r6, r2
10000cfc:	9d04      	ldr	r5, [sp, #16]
10000cfe:	eb00 0c40 	add.w	ip, r0, r0, lsl #1
10000d02:	ea4f 0c8c 	mov.w	ip, ip, lsl #2
10000d06:	f10c 4c80 	add.w	ip, ip, #1073741824	@ 0x40000000
10000d0a:	f50c 3c80 	add.w	ip, ip, #65536	@ 0x10000
10000d0e:	f8dc 2004 	ldr.w	r2, [ip, #4]
10000d12:	42aa      	cmp	r2, r5
10000d14:	d201      	bcs.n	10000d1a <clock_configure_internal+0x22>
10000d16:	f8cc 5004 	str.w	r5, [ip, #4]
10000d1a:	f1a0 0e04 	sub.w	lr, r0, #4
10000d1e:	fa5f fe8e 	uxtb.w	lr, lr
10000d22:	f1be 0f01 	cmp.w	lr, #1
10000d26:	d928      	bls.n	10000d7a <clock_configure_internal+0x82>
10000d28:	f50c 5240 	add.w	r2, ip, #12288	@ 0x3000
10000d2c:	f44f 6400 	mov.w	r4, #2048	@ 0x800
10000d30:	6014      	str	r4, [r2, #0]
10000d32:	4a1e      	ldr	r2, [pc, #120]	@ (10000dac <clock_configure_internal+0xb4>)
10000d34:	f852 2020 	ldr.w	r2, [r2, r0, lsl #2]
10000d38:	b142      	cbz	r2, 10000d4c <clock_configure_internal+0x54>
10000d3a:	4c1c      	ldr	r4, [pc, #112]	@ (10000dac <clock_configure_internal+0xb4>)
10000d3c:	6964      	ldr	r4, [r4, #20]
10000d3e:	fbb4 f4f2 	udiv	r4, r4, r2
10000d42:	3401      	adds	r4, #1
10000d44:	eb04 0444 	add.w	r4, r4, r4, lsl #1
10000d48:	3c03      	subs	r4, #3
10000d4a:	d2fd      	bcs.n	10000d48 <clock_configure_internal+0x50>
10000d4c:	f8dc 2000 	ldr.w	r2, [ip]
10000d50:	ea82 1246 	eor.w	r2, r2, r6, lsl #5
10000d54:	f002 02e0 	and.w	r2, r2, #224	@ 0xe0
10000d58:	f50c 5480 	add.w	r4, ip, #4096	@ 0x1000
10000d5c:	6022      	str	r2, [r4, #0]
10000d5e:	f1be 0f01 	cmp.w	lr, #1
10000d62:	d916      	bls.n	10000d92 <clock_configure_internal+0x9a>
10000d64:	f50c 5200 	add.w	r2, ip, #8192	@ 0x2000
10000d68:	f44f 6100 	mov.w	r1, #2048	@ 0x800
10000d6c:	6011      	str	r1, [r2, #0]
10000d6e:	f8cc 5004 	str.w	r5, [ip, #4]
10000d72:	4a0e      	ldr	r2, [pc, #56]	@ (10000dac <clock_configure_internal+0xb4>)
10000d74:	f842 3020 	str.w	r3, [r2, r0, lsl #2]
10000d78:	bd70      	pop	{r4, r5, r6, pc}
10000d7a:	2901      	cmp	r1, #1
10000d7c:	d1d4      	bne.n	10000d28 <clock_configure_internal+0x30>
10000d7e:	f50c 5240 	add.w	r2, ip, #12288	@ 0x3000
10000d82:	2403      	movs	r4, #3
10000d84:	6014      	str	r4, [r2, #0]
10000d86:	f8dc 2008 	ldr.w	r2, [ip, #8]
10000d8a:	f012 0f01 	tst.w	r2, #1
10000d8e:	d0fa      	beq.n	10000d86 <clock_configure_internal+0x8e>
10000d90:	e7dc      	b.n	10000d4c <clock_configure_internal+0x54>
10000d92:	f8dc 2000 	ldr.w	r2, [ip]
10000d96:	404a      	eors	r2, r1
10000d98:	f002 0203 	and.w	r2, r2, #3
10000d9c:	6022      	str	r2, [r4, #0]
10000d9e:	f8dc 4008 	ldr.w	r4, [ip, #8]
10000da2:	2201      	movs	r2, #1
10000da4:	408a      	lsls	r2, r1
10000da6:	4214      	tst	r4, r2
10000da8:	d0f9      	beq.n	10000d9e <clock_configure_internal+0xa6>
10000daa:	e7db      	b.n	10000d64 <clock_configure_internal+0x6c>
10000dac:	2000078c 	.word	0x2000078c

10000db0 <clock_configure_undivided>:
10000db0:	b510      	push	{r4, lr}
10000db2:	b082      	sub	sp, #8
10000db4:	f44f 3480 	mov.w	r4, #65536	@ 0x10000
10000db8:	9400      	str	r4, [sp, #0]
10000dba:	f7ff ff9d 	bl	10000cf8 <clock_configure_internal>
10000dbe:	b002      	add	sp, #8
10000dc0:	bd10      	pop	{r4, pc}
	...

10000dc4 <clock_get_hz>:
10000dc4:	4b01      	ldr	r3, [pc, #4]	@ (10000dcc <clock_get_hz+0x8>)
10000dc6:	f853 0020 	ldr.w	r0, [r3, r0, lsl #2]
10000dca:	4770      	bx	lr
10000dcc:	2000078c 	.word	0x2000078c

10000dd0 <pll_init>:
10000dd0:	b570      	push	{r4, r5, r6, lr}
10000dd2:	9c04      	ldr	r4, [sp, #16]
10000dd4:	4d34      	ldr	r5, [pc, #208]	@ (10000ea8 <pll_init+0xd8>)
10000dd6:	fbb5 fcf1 	udiv	ip, r5, r1
10000dda:	4d34      	ldr	r5, [pc, #208]	@ (10000eac <pll_init+0xdc>)
10000ddc:	4415      	add	r5, r2
10000dde:	4e34      	ldr	r6, [pc, #208]	@ (10000eb0 <pll_init+0xe0>)
10000de0:	42b5      	cmp	r5, r6
10000de2:	d837      	bhi.n	10000e54 <pll_init+0x84>
10000de4:	fbb2 f5fc 	udiv	r5, r2, ip
10000de8:	f1a5 0e10 	sub.w	lr, r5, #16
10000dec:	f5be 7f98 	cmp.w	lr, #304	@ 0x130
10000df0:	d836      	bhi.n	10000e60 <pll_init+0x90>
10000df2:	f103 3eff 	add.w	lr, r3, #4294967295	@ 0xffffffff
10000df6:	f1be 0f06 	cmp.w	lr, #6
10000dfa:	d837      	bhi.n	10000e6c <pll_init+0x9c>
10000dfc:	f104 3eff 	add.w	lr, r4, #4294967295	@ 0xffffffff
10000e00:	f1be 0f06 	cmp.w	lr, #6
10000e04:	d832      	bhi.n	10000e6c <pll_init+0x9c>
10000e06:	ebbc 1f12 	cmp.w	ip, r2, lsr #4
10000e0a:	d835      	bhi.n	10000e78 <pll_init+0xa8>
10000e0c:	0324      	lsls	r4, r4, #12
10000e0e:	ea44 4403 	orr.w	r4, r4, r3, lsl #16
10000e12:	6803      	ldr	r3, [r0, #0]
10000e14:	2b00      	cmp	r3, #0
10000e16:	db35      	blt.n	10000e84 <pll_init+0xb4>
10000e18:	4b26      	ldr	r3, [pc, #152]	@ (10000eb4 <pll_init+0xe4>)
10000e1a:	4298      	cmp	r0, r3
10000e1c:	d042      	beq.n	10000ea4 <pll_init+0xd4>
10000e1e:	230e      	movs	r3, #14
10000e20:	2201      	movs	r2, #1
10000e22:	409a      	lsls	r2, r3
10000e24:	4b24      	ldr	r3, [pc, #144]	@ (10000eb8 <pll_init+0xe8>)
10000e26:	601a      	str	r2, [r3, #0]
10000e28:	f503 5380 	add.w	r3, r3, #4096	@ 0x1000
10000e2c:	601a      	str	r2, [r3, #0]
10000e2e:	4b23      	ldr	r3, [pc, #140]	@ (10000ebc <pll_init+0xec>)
10000e30:	689b      	ldr	r3, [r3, #8]
10000e32:	ea32 0303 	bics.w	r3, r2, r3
10000e36:	d1fa      	bne.n	10000e2e <pll_init+0x5e>
10000e38:	6001      	str	r1, [r0, #0]
10000e3a:	6085      	str	r5, [r0, #8]
10000e3c:	f500 5240 	add.w	r2, r0, #12288	@ 0x3000
10000e40:	3204      	adds	r2, #4
10000e42:	2321      	movs	r3, #33	@ 0x21
10000e44:	6013      	str	r3, [r2, #0]
10000e46:	6803      	ldr	r3, [r0, #0]
10000e48:	2b00      	cmp	r3, #0
10000e4a:	dafc      	bge.n	10000e46 <pll_init+0x76>
10000e4c:	60c4      	str	r4, [r0, #12]
10000e4e:	2308      	movs	r3, #8
10000e50:	6013      	str	r3, [r2, #0]
10000e52:	bd70      	pop	{r4, r5, r6, pc}
10000e54:	4b1a      	ldr	r3, [pc, #104]	@ (10000ec0 <pll_init+0xf0>)
10000e56:	4a1b      	ldr	r2, [pc, #108]	@ (10000ec4 <pll_init+0xf4>)
10000e58:	2111      	movs	r1, #17
10000e5a:	481b      	ldr	r0, [pc, #108]	@ (10000ec8 <pll_init+0xf8>)
10000e5c:	f001 fbe8 	bl	10002630 <__assert_func>
10000e60:	4b1a      	ldr	r3, [pc, #104]	@ (10000ecc <pll_init+0xfc>)
10000e62:	4a18      	ldr	r2, [pc, #96]	@ (10000ec4 <pll_init+0xf4>)
10000e64:	2119      	movs	r1, #25
10000e66:	4818      	ldr	r0, [pc, #96]	@ (10000ec8 <pll_init+0xf8>)
10000e68:	f001 fbe2 	bl	10002630 <__assert_func>
10000e6c:	4b18      	ldr	r3, [pc, #96]	@ (10000ed0 <pll_init+0x100>)
10000e6e:	4a15      	ldr	r2, [pc, #84]	@ (10000ec4 <pll_init+0xf4>)
10000e70:	211c      	movs	r1, #28
10000e72:	4815      	ldr	r0, [pc, #84]	@ (10000ec8 <pll_init+0xf8>)
10000e74:	f001 fbdc 	bl	10002630 <__assert_func>
10000e78:	4b16      	ldr	r3, [pc, #88]	@ (10000ed4 <pll_init+0x104>)
10000e7a:	4a12      	ldr	r2, [pc, #72]	@ (10000ec4 <pll_init+0xf4>)
10000e7c:	2123      	movs	r1, #35	@ 0x23
10000e7e:	4812      	ldr	r0, [pc, #72]	@ (10000ec8 <pll_init+0xf8>)
10000e80:	f001 fbd6 	bl	10002630 <__assert_func>
10000e84:	6803      	ldr	r3, [r0, #0]
10000e86:	f003 033f 	and.w	r3, r3, #63	@ 0x3f
10000e8a:	428b      	cmp	r3, r1
10000e8c:	d1c4      	bne.n	10000e18 <pll_init+0x48>
10000e8e:	6883      	ldr	r3, [r0, #8]
10000e90:	f3c3 030b 	ubfx	r3, r3, #0, #12
10000e94:	42ab      	cmp	r3, r5
10000e96:	d1bf      	bne.n	10000e18 <pll_init+0x48>
10000e98:	68c3      	ldr	r3, [r0, #12]
10000e9a:	f403 23ee 	and.w	r3, r3, #487424	@ 0x77000
10000e9e:	42a3      	cmp	r3, r4
10000ea0:	d1ba      	bne.n	10000e18 <pll_init+0x48>
10000ea2:	e7d6      	b.n	10000e52 <pll_init+0x82>
10000ea4:	230f      	movs	r3, #15
10000ea6:	e7bb      	b.n	10000e20 <pll_init+0x50>
10000ea8:	00b71b00 	.word	0x00b71b00
10000eac:	d34be880 	.word	0xd34be880
10000eb0:	32a9f880 	.word	0x32a9f880
10000eb4:	40058000 	.word	0x40058000
10000eb8:	40022000 	.word	0x40022000
10000ebc:	40020000 	.word	0x40020000
10000ec0:	10002d64 	.word	0x10002d64
10000ec4:	10002ff0 	.word	0x10002ff0
10000ec8:	10002db4 	.word	0x10002db4
10000ecc:	10002e08 	.word	0x10002e08
10000ed0:	10002e24 	.word	0x10002e24
10000ed4:	10002e70 	.word	0x10002e70

10000ed8 <tick_start>:
10000ed8:	4a05      	ldr	r2, [pc, #20]	@ (10000ef0 <tick_start+0x18>)
10000eda:	eb00 0340 	add.w	r3, r0, r0, lsl #1
10000ede:	eb02 0383 	add.w	r3, r2, r3, lsl #2
10000ee2:	6059      	str	r1, [r3, #4]
10000ee4:	eb00 0040 	add.w	r0, r0, r0, lsl #1
10000ee8:	0080      	lsls	r0, r0, #2
10000eea:	2301      	movs	r3, #1
10000eec:	5013      	str	r3, [r2, r0]
10000eee:	4770      	bx	lr
10000ef0:	40108000 	.word	0x40108000

10000ef4 <xosc_init>:
10000ef4:	4b07      	ldr	r3, [pc, #28]	@ (10000f14 <xosc_init+0x20>)
10000ef6:	f44f 622a 	mov.w	r2, #2720	@ 0xaa0
10000efa:	601a      	str	r2, [r3, #0]
10000efc:	222f      	movs	r2, #47	@ 0x2f
10000efe:	60da      	str	r2, [r3, #12]
10000f00:	f503 5300 	add.w	r3, r3, #8192	@ 0x2000
10000f04:	4a04      	ldr	r2, [pc, #16]	@ (10000f18 <xosc_init+0x24>)
10000f06:	601a      	str	r2, [r3, #0]
10000f08:	4b02      	ldr	r3, [pc, #8]	@ (10000f14 <xosc_init+0x20>)
10000f0a:	685b      	ldr	r3, [r3, #4]
10000f0c:	2b00      	cmp	r3, #0
10000f0e:	dafb      	bge.n	10000f08 <xosc_init+0x14>
10000f10:	4770      	bx	lr
10000f12:	bf00      	nop
10000f14:	40048000 	.word	0x40048000
10000f18:	00fab000 	.word	0x00fab000

10000f1c <runtime_run_initializers_from>:
10000f1c:	b510      	push	{r4, lr}
10000f1e:	4604      	mov	r4, r0
10000f20:	e002      	b.n	10000f28 <runtime_run_initializers_from+0xc>
10000f22:	f854 3b04 	ldr.w	r3, [r4], #4
10000f26:	4798      	blx	r3
10000f28:	4b01      	ldr	r3, [pc, #4]	@ (10000f30 <runtime_run_initializers_from+0x14>)
10000f2a:	429c      	cmp	r4, r3
10000f2c:	d3f9      	bcc.n	10000f22 <runtime_run_initializers_from+0x6>
10000f2e:	bd10      	pop	{r4, pc}
10000f30:	10002a80 	.word	0x10002a80

10000f34 <first_per_core_initializer>:
10000f34:	4770      	bx	lr
	...

10000f38 <runtime_run_initializers>:
10000f38:	b508      	push	{r3, lr}
10000f3a:	4802      	ldr	r0, [pc, #8]	@ (10000f44 <runtime_run_initializers+0xc>)
10000f3c:	f7ff ffee 	bl	10000f1c <runtime_run_initializers_from>
10000f40:	bd08      	pop	{r3, pc}
10000f42:	bf00      	nop
10000f44:	10002a40 	.word	0x10002a40

10000f48 <runtime_init_early_resets>:
10000f48:	4b06      	ldr	r3, [pc, #24]	@ (10000f64 <runtime_init_early_resets+0x1c>)
10000f4a:	4a07      	ldr	r2, [pc, #28]	@ (10000f68 <runtime_init_early_resets+0x20>)
10000f4c:	601a      	str	r2, [r3, #0]
10000f4e:	f503 5380 	add.w	r3, r3, #4096	@ 0x1000
10000f52:	4a06      	ldr	r2, [pc, #24]	@ (10000f6c <runtime_init_early_resets+0x24>)
10000f54:	601a      	str	r2, [r3, #0]
10000f56:	4b06      	ldr	r3, [pc, #24]	@ (10000f70 <runtime_init_early_resets+0x28>)
10000f58:	689a      	ldr	r2, [r3, #8]
10000f5a:	4b04      	ldr	r3, [pc, #16]	@ (10000f6c <runtime_init_early_resets+0x24>)
10000f5c:	4393      	bics	r3, r2
10000f5e:	d1fa      	bne.n	10000f56 <runtime_init_early_resets+0xe>
10000f60:	4770      	bx	lr
10000f62:	bf00      	nop
10000f64:	40022000 	.word	0x40022000
10000f68:	efef3b7f 	.word	0xefef3b7f
10000f6c:	03f3fff6 	.word	0x03f3fff6
10000f70:	40020000 	.word	0x40020000

10000f74 <runtime_init_usb_power_down>:
10000f74:	4b05      	ldr	r3, [pc, #20]	@ (10000f8c <runtime_init_usb_power_down+0x18>)
10000f76:	6cdb      	ldr	r3, [r3, #76]	@ 0x4c
10000f78:	f5b3 4f00 	cmp.w	r3, #32768	@ 0x8000
10000f7c:	d000      	beq.n	10000f80 <runtime_init_usb_power_down+0xc>
10000f7e:	4770      	bx	lr
10000f80:	4b03      	ldr	r3, [pc, #12]	@ (10000f90 <runtime_init_usb_power_down+0x1c>)
10000f82:	f44f 2280 	mov.w	r2, #262144	@ 0x40000
10000f86:	64da      	str	r2, [r3, #76]	@ 0x4c
10000f88:	e7f9      	b.n	10000f7e <runtime_init_usb_power_down+0xa>
10000f8a:	bf00      	nop
10000f8c:	50110000 	.word	0x50110000
10000f90:	50112000 	.word	0x50112000

10000f94 <runtime_init_per_core_enable_coprocessors>:
10000f94:	f04f 22e0 	mov.w	r2, #3758153728	@ 0xe000e000
10000f98:	f8d2 1d88 	ldr.w	r1, [r2, #3464]	@ 0xd88
10000f9c:	4b03      	ldr	r3, [pc, #12]	@ (10000fac <runtime_init_per_core_enable_coprocessors+0x18>)
10000f9e:	430b      	orrs	r3, r1
10000fa0:	f8c2 3d88 	str.w	r3, [r2, #3464]	@ 0xd88
10000fa4:	ee10 0430 	dcp_rcmp r0
10000fa8:	4770      	bx	lr
10000faa:	bf00      	nop
10000fac:	00300303 	.word	0x00300303

10000fb0 <runtime_init_post_clock_resets>:
10000fb0:	4b05      	ldr	r3, [pc, #20]	@ (10000fc8 <runtime_init_post_clock_resets+0x18>)
10000fb2:	f06f 4260 	mvn.w	r2, #3758096384	@ 0xe0000000
10000fb6:	601a      	str	r2, [r3, #0]
10000fb8:	4b04      	ldr	r3, [pc, #16]	@ (10000fcc <runtime_init_post_clock_resets+0x1c>)
10000fba:	689b      	ldr	r3, [r3, #8]
10000fbc:	43db      	mvns	r3, r3
10000fbe:	f033 4360 	bics.w	r3, r3, #3758096384	@ 0xe0000000
10000fc2:	d1f9      	bne.n	10000fb8 <runtime_init_post_clock_resets+0x8>
10000fc4:	4770      	bx	lr
10000fc6:	bf00      	nop
10000fc8:	40023000 	.word	0x40023000
10000fcc:	40020000 	.word	0x40020000

10000fd0 <runtime_init_bootrom_reset>:
10000fd0:	b508      	push	{r3, lr}
10000fd2:	f245 2053 	movw	r0, #21075	@ 0x5253
10000fd6:	f000 f897 	bl	10001108 <rom_func_lookup>
10000fda:	4603      	mov	r3, r0
10000fdc:	2004      	movs	r0, #4
10000fde:	4798      	blx	r3
10000fe0:	bd08      	pop	{r3, pc}

10000fe2 <runtime_init_per_core_bootrom_reset>:
10000fe2:	b508      	push	{r3, lr}
10000fe4:	f245 2053 	movw	r0, #21075	@ 0x5253
10000fe8:	f000 f88e 	bl	10001108 <rom_func_lookup>
10000fec:	4603      	mov	r3, r0
10000fee:	2001      	movs	r0, #1
10000ff0:	4798      	blx	r3
10000ff2:	bd08      	pop	{r3, pc}

10000ff4 <runtime_init_spin_locks_reset>:
10000ff4:	b508      	push	{r3, lr}
10000ff6:	f7ff f99f 	bl	10000338 <spin_locks_reset>
10000ffa:	bd08      	pop	{r3, pc}

10000ffc <runtime_init_install_ram_vector_table>:
10000ffc:	b538      	push	{r3, r4, r5, lr}
10000ffe:	4c05      	ldr	r4, [pc, #20]	@ (10001014 <runtime_init_install_ram_vector_table+0x18>)
10001000:	68a1      	ldr	r1, [r4, #8]
10001002:	4d05      	ldr	r5, [pc, #20]	@ (10001018 <runtime_init_install_ram_vector_table+0x1c>)
10001004:	f44f 7288 	mov.w	r2, #272	@ 0x110
10001008:	4628      	mov	r0, r5
1000100a:	f001 fc67 	bl	100028dc <memcpy>
1000100e:	60a5      	str	r5, [r4, #8]
10001010:	bd38      	pop	{r3, r4, r5, pc}
10001012:	bf00      	nop
10001014:	e000ed00 	.word	0xe000ed00
10001018:	20000000 	.word	0x20000000

1000101c <start_all_ticks>:
1000101c:	b538      	push	{r3, r4, r5, lr}
1000101e:	2004      	movs	r0, #4
10001020:	f7ff fed0 	bl	10000dc4 <clock_get_hz>
10001024:	4b06      	ldr	r3, [pc, #24]	@ (10001040 <start_all_ticks+0x24>)
10001026:	fba3 3500 	umull	r3, r5, r3, r0
1000102a:	0cad      	lsrs	r5, r5, #18
1000102c:	2400      	movs	r4, #0
1000102e:	e004      	b.n	1000103a <start_all_ticks+0x1e>
10001030:	4629      	mov	r1, r5
10001032:	b2e0      	uxtb	r0, r4
10001034:	f7ff ff50 	bl	10000ed8 <tick_start>
10001038:	3401      	adds	r4, #1
1000103a:	2c05      	cmp	r4, #5
1000103c:	ddf8      	ble.n	10001030 <start_all_ticks+0x14>
1000103e:	bd38      	pop	{r3, r4, r5, pc}
10001040:	431bde83 	.word	0x431bde83

10001044 <runtime_init_clocks>:
10001044:	b530      	push	{r4, r5, lr}
10001046:	b083      	sub	sp, #12
10001048:	4b26      	ldr	r3, [pc, #152]	@ (100010e4 <runtime_init_clocks+0xa0>)
1000104a:	2200      	movs	r2, #0
1000104c:	f8c3 2084 	str.w	r2, [r3, #132]	@ 0x84
10001050:	f7ff ff50 	bl	10000ef4 <xosc_init>
10001054:	4b24      	ldr	r3, [pc, #144]	@ (100010e8 <runtime_init_clocks+0xa4>)
10001056:	2201      	movs	r2, #1
10001058:	63da      	str	r2, [r3, #60]	@ 0x3c
1000105a:	4b22      	ldr	r3, [pc, #136]	@ (100010e4 <runtime_init_clocks+0xa0>)
1000105c:	6c5b      	ldr	r3, [r3, #68]	@ 0x44
1000105e:	2b01      	cmp	r3, #1
10001060:	d1fb      	bne.n	1000105a <runtime_init_clocks+0x16>
10001062:	4b21      	ldr	r3, [pc, #132]	@ (100010e8 <runtime_init_clocks+0xa4>)
10001064:	2203      	movs	r2, #3
10001066:	631a      	str	r2, [r3, #48]	@ 0x30
10001068:	4b1e      	ldr	r3, [pc, #120]	@ (100010e4 <runtime_init_clocks+0xa0>)
1000106a:	6b9b      	ldr	r3, [r3, #56]	@ 0x38
1000106c:	2b01      	cmp	r3, #1
1000106e:	d1fb      	bne.n	10001068 <runtime_init_clocks+0x24>
10001070:	2402      	movs	r4, #2
10001072:	9400      	str	r4, [sp, #0]
10001074:	2305      	movs	r3, #5
10001076:	4a1d      	ldr	r2, [pc, #116]	@ (100010ec <runtime_init_clocks+0xa8>)
10001078:	2101      	movs	r1, #1
1000107a:	481d      	ldr	r0, [pc, #116]	@ (100010f0 <runtime_init_clocks+0xac>)
1000107c:	f7ff fea8 	bl	10000dd0 <pll_init>
10001080:	2505      	movs	r5, #5
10001082:	9500      	str	r5, [sp, #0]
10001084:	462b      	mov	r3, r5
10001086:	4a1b      	ldr	r2, [pc, #108]	@ (100010f4 <runtime_init_clocks+0xb0>)
10001088:	2101      	movs	r1, #1
1000108a:	481b      	ldr	r0, [pc, #108]	@ (100010f8 <runtime_init_clocks+0xb4>)
1000108c:	f7ff fea0 	bl	10000dd0 <pll_init>
10001090:	4b1a      	ldr	r3, [pc, #104]	@ (100010fc <runtime_init_clocks+0xb8>)
10001092:	2200      	movs	r2, #0
10001094:	4621      	mov	r1, r4
10001096:	2004      	movs	r0, #4
10001098:	f7ff fe8a 	bl	10000db0 <clock_configure_undivided>
1000109c:	4c18      	ldr	r4, [pc, #96]	@ (10001100 <runtime_init_clocks+0xbc>)
1000109e:	4623      	mov	r3, r4
100010a0:	2200      	movs	r2, #0
100010a2:	2101      	movs	r1, #1
100010a4:	4628      	mov	r0, r5
100010a6:	f7ff fe83 	bl	10000db0 <clock_configure_undivided>
100010aa:	4d16      	ldr	r5, [pc, #88]	@ (10001104 <runtime_init_clocks+0xc0>)
100010ac:	462b      	mov	r3, r5
100010ae:	2200      	movs	r2, #0
100010b0:	4611      	mov	r1, r2
100010b2:	2008      	movs	r0, #8
100010b4:	f7ff fe7c 	bl	10000db0 <clock_configure_undivided>
100010b8:	462b      	mov	r3, r5
100010ba:	2200      	movs	r2, #0
100010bc:	4611      	mov	r1, r2
100010be:	2009      	movs	r0, #9
100010c0:	f7ff fe76 	bl	10000db0 <clock_configure_undivided>
100010c4:	4623      	mov	r3, r4
100010c6:	2200      	movs	r2, #0
100010c8:	4611      	mov	r1, r2
100010ca:	2006      	movs	r0, #6
100010cc:	f7ff fe70 	bl	10000db0 <clock_configure_undivided>
100010d0:	4623      	mov	r3, r4
100010d2:	2200      	movs	r2, #0
100010d4:	4611      	mov	r1, r2
100010d6:	2007      	movs	r0, #7
100010d8:	f7ff fe6a 	bl	10000db0 <clock_configure_undivided>
100010dc:	f7ff ff9e 	bl	1000101c <start_all_ticks>
100010e0:	b003      	add	sp, #12
100010e2:	bd30      	pop	{r4, r5, pc}
100010e4:	40010000 	.word	0x40010000
100010e8:	40013000 	.word	0x40013000
100010ec:	59682f00 	.word	0x59682f00
100010f0:	40050000 	.word	0x40050000
100010f4:	47868c00 	.word	0x47868c00
100010f8:	40058000 	.word	0x40058000
100010fc:	00b71b00 	.word	0x00b71b00
10001100:	08f0d180 	.word	0x08f0d180
10001104:	02dc6c00 	.word	0x02dc6c00

10001108 <rom_func_lookup>:
10001108:	b508      	push	{r3, lr}
1000110a:	2300      	movs	r3, #0
1000110c:	7cdb      	ldrb	r3, [r3, #19]
1000110e:	b2db      	uxtb	r3, r3
10001110:	2b02      	cmp	r3, #2
10001112:	d00a      	beq.n	1000112a <rom_func_lookup+0x22>
10001114:	2318      	movs	r3, #24
10001116:	881b      	ldrh	r3, [r3, #0]
10001118:	2200      	movs	r2, #0
1000111a:	e842 f200 	tt	r2, r2
1000111e:	f412 0f80 	tst.w	r2, #4194304	@ 0x400000
10001122:	d104      	bne.n	1000112e <rom_func_lookup+0x26>
10001124:	2110      	movs	r1, #16
10001126:	4798      	blx	r3
10001128:	bd08      	pop	{r3, pc}
1000112a:	2316      	movs	r3, #22
1000112c:	e7f3      	b.n	10001116 <rom_func_lookup+0xe>
1000112e:	2104      	movs	r1, #4
10001130:	4798      	blx	r3
10001132:	e7f9      	b.n	10001128 <rom_func_lookup+0x20>

10001134 <runtime_init_bootrom_locking_enable>:
10001134:	4b03      	ldr	r3, [pc, #12]	@ (10001144 <runtime_init_bootrom_locking_enable+0x10>)
10001136:	f8d3 3828 	ldr.w	r3, [r3, #2088]	@ 0x828
1000113a:	2b00      	cmp	r3, #0
1000113c:	d0fa      	beq.n	10001134 <runtime_init_bootrom_locking_enable>
1000113e:	f3bf 8f5f 	dmb	sy
10001142:	4770      	bx	lr
10001144:	400e0000 	.word	0x400e0000

10001148 <boot_locks_reset>:
10001148:	2200      	movs	r2, #0
1000114a:	e007      	b.n	1000115c <boot_locks_reset+0x14>
1000114c:	4b05      	ldr	r3, [pc, #20]	@ (10001164 <boot_locks_reset+0x1c>)
1000114e:	4413      	add	r3, r2
10001150:	009b      	lsls	r3, r3, #2
10001152:	f3bf 8f5f 	dmb	sy
10001156:	2100      	movs	r1, #0
10001158:	6019      	str	r1, [r3, #0]
1000115a:	3201      	adds	r2, #1
1000115c:	2a07      	cmp	r2, #7
1000115e:	d9f5      	bls.n	1000114c <boot_locks_reset+0x4>
10001160:	4770      	bx	lr
10001162:	bf00      	nop
10001164:	10038203 	.word	0x10038203

10001168 <runtime_init_boot_locks_reset>:
10001168:	b508      	push	{r3, lr}
1000116a:	f7ff ffed 	bl	10001148 <boot_locks_reset>
1000116e:	bd08      	pop	{r3, pc}

10001170 <generic_save_state>:
10001170:	b086      	sub	sp, #24
10001172:	b403      	push	{r0, r1}
10001174:	fc51 0408 	dcp_pxmd r0, r1
10001178:	e9cd 0102 	strd	r0, r1, [sp, #8]
1000117c:	fc51 0409 	dcp_pymd r0, r1
10001180:	e9cd 0104 	strd	r0, r1, [sp, #16]
10001184:	ec51 040a 	dcp_refd r0, r1
10001188:	e9cd 0106 	strd	r0, r1, [sp, #24]
1000118c:	bc03      	pop	{r0, r1}
1000118e:	47f0      	blx	lr

10001190 <generic_restore_state>:
10001190:	e8bd 5000 	ldmia.w	sp!, {ip, lr}
10001194:	ec4e c400 	dcp_wxmd ip, lr
10001198:	e8bd 5000 	ldmia.w	sp!, {ip, lr}
1000119c:	ec4e c401 	dcp_wymd ip, lr
100011a0:	e8bd 5000 	ldmia.w	sp!, {ip, lr}
100011a4:	ec4e c402 	dcp_wefd ip, lr
100011a8:	bd00      	pop	{pc}
100011aa:	0000      	movs	r0, r0
100011ac:	b500      	push	{lr}
100011ae:	f7ff ffdf 	bl	10001170 <generic_save_state>
100011b2:	e002      	b.n	100011ba <__wrap___aeabi_dadd+0x6>

100011b4 <__wrap___aeabi_dadd>:
100011b4:	fe10 f430 	dcp_pcmp APSR_nzcv
100011b8:	d4f8      	bmi.n	100011ac <generic_restore_state+0x1c>
100011ba:	ec41 0410 	dcp_wxup r0, r1
100011be:	ec43 2411 	dcp_wyup r2, r3
100011c2:	ee00 0401 	dcp_add0
100011c6:	ee10 0401 	dcp_add1
100011ca:	ee80 0420 	dcp_nrdd
100011ce:	ec51 0410 	dcp_rdda r0, r1
100011d2:	4770      	bx	lr
100011d4:	b500      	push	{lr}
100011d6:	f7ff ffcb 	bl	10001170 <generic_save_state>
100011da:	e002      	b.n	100011e2 <__wrap___aeabi_dsub+0x6>

100011dc <__wrap___aeabi_dsub>:
100011dc:	fe10 f430 	dcp_pcmp APSR_nzcv
100011e0:	d4f8      	bmi.n	100011d4 <__wrap___aeabi_dadd+0x20>
100011e2:	ec41 0410 	dcp_wxup r0, r1
100011e6:	ec43 2411 	dcp_wyup r2, r3
100011ea:	ee00 0401 	dcp_add0
100011ee:	ee10 0421 	dcp_sub1
100011f2:	ee80 0420 	dcp_nrdd
100011f6:	ec51 0430 	dcp_rdds r0, r1
100011fa:	4770      	bx	lr
100011fc:	b500      	push	{lr}
100011fe:	f7ff ffb7 	bl	10001170 <generic_save_state>
10001202:	e002      	b.n	1000120a <__wrap___aeabi_dmul+0x6>

10001204 <__wrap___aeabi_dmul>:
10001204:	fe10 f430 	dcp_pcmp APSR_nzcv
10001208:	d4f8      	bmi.n	100011fc <__wrap___aeabi_dsub+0x20>
1000120a:	b510      	push	{r4, lr}
1000120c:	ec41 0410 	dcp_wxup r0, r1
10001210:	ec43 2411 	dcp_wyup r2, r3
10001214:	ec51 0404 	dcp_rxms r0, r1, #0x0
10001218:	ec53 2405 	dcp_ryms r2, r3, #0x0
1000121c:	fba0 4c02 	umull	r4, ip, r0, r2
10001220:	f05f 0e00 	movs.w	lr, #0
10001224:	fbe0 ce03 	umlal	ip, lr, r0, r3
10001228:	fbe1 ce02 	umlal	ip, lr, r1, r2
1000122c:	ec4c 4420 	dcp_wxms r4, ip
10001230:	2400      	movs	r4, #0
10001232:	fbe1 e403 	umlal	lr, r4, r1, r3
10001236:	ec44 e430 	dcp_wxmo lr, r4
1000123a:	ee80 0420 	dcp_nrdd
1000123e:	ec51 0450 	dcp_rddm r0, r1
10001242:	e8bd 4010 	ldmia.w	sp!, {r4, lr}
10001246:	4770      	bx	lr
10001248:	b500      	push	{lr}
1000124a:	f7ff ff91 	bl	10001170 <generic_save_state>
1000124e:	e002      	b.n	10001256 <__wrap___aeabi_ddiv+0x6>

10001250 <__wrap___aeabi_ddiv>:
10001250:	fe10 f430 	dcp_pcmp APSR_nzcv
10001254:	d4f8      	bmi.n	10001248 <__wrap___aeabi_dmul+0x44>
10001256:	ec41 0410 	dcp_wxup r0, r1
1000125a:	ec43 2411 	dcp_wyup r2, r3
1000125e:	ec51 0421 	dcp_rymr r0, r1
10001262:	fba0 1201 	umull	r1, r2, r0, r1
10001266:	ea6f 0282 	mvn.w	r2, r2, lsl #2
1000126a:	fb52 0010 	smmlar	r0, r2, r0, r0
1000126e:	fb52 f212 	smmulr	r2, r2, r2
10001272:	fb52 0010 	smmlar	r0, r2, r0, r0
10001276:	eba0 7cd0 	sub.w	ip, r0, r0, lsr #31
1000127a:	ec53 2404 	dcp_rxms r2, r3, #0x0
1000127e:	fb5c f113 	smmulr	r1, ip, r3
10001282:	ec53 2415 	dcp_ryms r2, r3, #0x1
10001286:	fba1 2002 	umull	r2, r0, r1, r2
1000128a:	fb01 0003 	mla	r0, r1, r3, r0
1000128e:	ec53 2444 	dcp_rxms r2, r3, #0x4
10001292:	eba2 0000 	sub.w	r0, r2, r0
10001296:	fb50 f21c 	smmulr	r2, r0, ip
1000129a:	ea4f 1311 	mov.w	r3, r1, lsr #4
1000129e:	eb12 7001 	adds.w	r0, r2, r1, lsl #28
100012a2:	eb43 71e2 	adc.w	r1, r3, r2, asr #31
100012a6:	ea40 5051 	orr.w	r0, r0, r1, lsr #21
100012aa:	ea20 5091 	bic.w	r0, r0, r1, lsr #22
100012ae:	f020 0007 	bic.w	r0, r0, #7
100012b2:	ec53 2475 	dcp_ryms r2, r3, #0x7
100012b6:	fba0 3c02 	umull	r3, ip, r0, r2
100012ba:	ec53 2475 	dcp_ryms r2, r3, #0x7
100012be:	fb00 cc03 	mla	ip, r0, r3, ip
100012c2:	fb01 cc02 	mla	ip, r1, r2, ip
100012c6:	ec53 2404 	dcp_rxms r2, r3, #0x0
100012ca:	ebac 4c82 	sub.w	ip, ip, r2, lsl #18
100012ce:	ea40 705c 	orr.w	r0, r0, ip, lsr #29
100012d2:	f1a0 0001 	sub.w	r0, r0, #1
100012d6:	ec41 0440 	dcp_wxdd r0, r1
100012da:	ee80 0420 	dcp_nrdd
100012de:	ec51 0470 	dcp_rddd r0, r1
100012e2:	4770      	bx	lr
100012e4:	b500      	push	{lr}
100012e6:	f7ff ff43 	bl	10001170 <generic_save_state>
100012ea:	e002      	b.n	100012f2 <__wrap___aeabi_i2d+0x6>

100012ec <__wrap___aeabi_i2d>:
100012ec:	fe10 f430 	dcp_pcmp APSR_nzcv
100012f0:	d4f8      	bmi.n	100012e4 <__wrap___aeabi_ddiv+0x94>
100012f2:	ec40 0470 	dcp_wxic r0, r0
100012f6:	ee00 0401 	dcp_add0
100012fa:	ee10 0421 	dcp_sub1
100012fe:	ee80 0420 	dcp_nrdd
10001302:	ec51 0430 	dcp_rdds r0, r1
10001306:	4770      	bx	lr
10001308:	b500      	push	{lr}
1000130a:	f7ff ff31 	bl	10001170 <generic_save_state>
1000130e:	e002      	b.n	10001316 <__wrap___aeabi_ui2d+0x6>

10001310 <__wrap___aeabi_ui2d>:
10001310:	fe10 f430 	dcp_pcmp APSR_nzcv
10001314:	d4f8      	bmi.n	10001308 <__wrap___aeabi_i2d+0x1c>
10001316:	ec40 0460 	dcp_wxuc r0, r0
1000131a:	ee00 0401 	dcp_add0
1000131e:	ee10 0421 	dcp_sub1
10001322:	ee80 0420 	dcp_nrdd
10001326:	ec51 0430 	dcp_rdds r0, r1
1000132a:	4770      	bx	lr
1000132c:	b500      	push	{lr}
1000132e:	f7ff ff1f 	bl	10001170 <generic_save_state>
10001332:	e002      	b.n	1000133a <__wrap___aeabi_d2iz+0x6>

10001334 <__wrap___aeabi_d2iz>:
10001334:	fe10 f430 	dcp_pcmp APSR_nzcv
10001338:	d4f8      	bmi.n	1000132c <__wrap___aeabi_ui2d+0x1c>
1000133a:	ec41 0480 	dcp_wxdc r0, r1
1000133e:	ee00 0401 	dcp_add0
10001342:	ee10 0401 	dcp_add1
10001346:	ee80 0440 	dcp_ntdc
1000134a:	ee10 0413 	dcp_rdic r0
1000134e:	4770      	bx	lr
10001350:	b500      	push	{lr}
10001352:	f7ff ff0d 	bl	10001170 <generic_save_state>
10001356:	e002      	b.n	1000135e <__wrap___aeabi_d2uiz+0x6>

10001358 <__wrap___aeabi_d2uiz>:
10001358:	fe10 f430 	dcp_pcmp APSR_nzcv
1000135c:	d4f8      	bmi.n	10001350 <__wrap___aeabi_d2iz+0x1c>
1000135e:	ec41 0480 	dcp_wxdc r0, r1
10001362:	ee00 0401 	dcp_add0
10001366:	ee10 0401 	dcp_add1
1000136a:	ee80 0440 	dcp_ntdc
1000136e:	ee10 0433 	dcp_rduc r0
10001372:	4770      	bx	lr
10001374:	b500      	push	{lr}
10001376:	f7ff fefb 	bl	10001170 <generic_save_state>
1000137a:	e002      	b.n	10001382 <__wrap___aeabi_dcmpun+0x6>

1000137c <__wrap___aeabi_dcmpun>:
1000137c:	fe10 f430 	dcp_pcmp APSR_nzcv
10001380:	d4f8      	bmi.n	10001374 <__wrap___aeabi_d2uiz+0x1c>
10001382:	ec41 0410 	dcp_wxup r0, r1
10001386:	ec43 2411 	dcp_wyup r2, r3
1000138a:	ee00 0401 	dcp_add0
1000138e:	ee10 0430 	dcp_rcmp r0
10001392:	f3c0 7000 	ubfx	r0, r0, #28, #1
10001396:	4770      	bx	lr
10001398:	b500      	push	{lr}
1000139a:	f7ff fee9 	bl	10001170 <generic_save_state>
1000139e:	e002      	b.n	100013a6 <__wrap___aeabi_dcmplt+0x6>

100013a0 <__wrap___aeabi_dcmplt>:
100013a0:	fe10 f430 	dcp_pcmp APSR_nzcv
100013a4:	d4f8      	bmi.n	10001398 <__wrap___aeabi_dcmpun+0x1c>
100013a6:	ec43 2410 	dcp_wxup r2, r3
100013aa:	ec41 0411 	dcp_wyup r0, r1
100013ae:	ee00 0401 	dcp_add0
100013b2:	ee10 f430 	dcp_rcmp APSR_nzcv
100013b6:	bf8c      	ite	hi
100013b8:	2001      	movhi	r0, #1
100013ba:	2000      	movls	r0, #0
100013bc:	4770      	bx	lr
100013be:	bf00      	nop
100013c0:	b500      	push	{lr}
100013c2:	f7ff fed5 	bl	10001170 <generic_save_state>
100013c6:	e002      	b.n	100013ce <__wrap___aeabi_dcmple+0x6>

100013c8 <__wrap___aeabi_dcmple>:
100013c8:	fe10 f430 	dcp_pcmp APSR_nzcv
100013cc:	d4f8      	bmi.n	100013c0 <__wrap___aeabi_dcmplt+0x20>
100013ce:	ec43 2410 	dcp_wxup r2, r3
100013d2:	ec41 0411 	dcp_wyup r0, r1
100013d6:	ee00 0401 	dcp_add0
100013da:	ee10 f430 	dcp_rcmp APSR_nzcv
100013de:	bf2c      	ite	cs
100013e0:	2001      	movcs	r0, #1
100013e2:	2000      	movcc	r0, #0
100013e4:	4770      	bx	lr
100013e6:	bf00      	nop
100013e8:	b500      	push	{lr}
100013ea:	f7ff fec1 	bl	10001170 <generic_save_state>
100013ee:	e002      	b.n	100013f6 <__wrap___aeabi_dcmpge+0x6>

100013f0 <__wrap___aeabi_dcmpge>:
100013f0:	fe10 f430 	dcp_pcmp APSR_nzcv
100013f4:	d4f8      	bmi.n	100013e8 <__wrap___aeabi_dcmple+0x20>
100013f6:	ec41 0410 	dcp_wxup r0, r1
100013fa:	ec43 2411 	dcp_wyup r2, r3
100013fe:	ee00 0401 	dcp_add0
10001402:	ee10 f430 	dcp_rcmp APSR_nzcv
10001406:	bf2c      	ite	cs
10001408:	2001      	movcs	r0, #1
1000140a:	2000      	movcc	r0, #0
1000140c:	4770      	bx	lr
1000140e:	bf00      	nop
10001410:	b500      	push	{lr}
10001412:	f7ff fead 	bl	10001170 <generic_save_state>
10001416:	e002      	b.n	1000141e <__wrap___aeabi_dcmpgt+0x6>

10001418 <__wrap___aeabi_dcmpgt>:
10001418:	fe10 f430 	dcp_pcmp APSR_nzcv
1000141c:	d4f8      	bmi.n	10001410 <__wrap___aeabi_dcmpge+0x20>
1000141e:	ec41 0410 	dcp_wxup r0, r1
10001422:	ec43 2411 	dcp_wyup r2, r3
10001426:	ee00 0401 	dcp_add0
